Microchip MPLAB XC8 Compiler V1.42 ()

Linker command line:

-W-3 --edf=/Applications/microchip/xc8/v1.42/dat/en_msgs.txt -cs \
  -h+dist/default/production/defcon25.production.sym \
  --cmf=dist/default/production/defcon25.production.cmf -z -Q16LF18346 \
  -o/tmp/xc0nxBpfe -Mdist/default/production/defcon25.production.map -E1 \
  -ver=XC8 -ASTACK=02398h-026efh -pstack=STACK -ACODE=00h-07FFhx8 \
  -ASTRCODE=00h-03FFFh -ASTRING=00h-0FFhx64 -ACONST=00h-0FFhx64 \
  -AENTRY=00h-0FFhx64 -ACOMMON=070h-07Fh -ABANK0=020h-06Fh \
  -ABANK1=0A0h-0EFh -ABANK2=0120h-016Fh -ABANK3=01A0h-01EFh \
  -ABANK4=0220h-026Fh -ABANK5=02A0h-02EFh -ABANK6=0320h-036Fh \
  -ABANK7=03A0h-03EFh -ABANK8=0420h-046Fh -ABANK9=04A0h-04EFh \
  -ABANK10=0520h-056Fh -ABANK11=05A0h-05EFh -ABANK12=0620h-066Fh \
  -ABANK13=06A0h-06EFh -ABANK14=0720h-076Fh -ABANK15=07A0h-07EFh \
  -ABANK16=0820h-086Fh -ABANK17=08A0h-08EFh -ABANK18=0920h-096Fh \
  -ABANK19=09A0h-09EFh -ABANK20=0A20h-0A6Fh -ABANK21=0AA0h-0AEFh \
  -ABANK22=0B20h-0B6Fh -ABANK23=0BA0h-0BEFh -ABANK24=0C20h-0C6Fh \
  -ABANK25=0CA0h-0CBFh -ABIGRAM=02000h-027EFh \
  -ARAM=020h-06Fh,0A0h-0EFh,0120h-016Fh,01A0h-01EFh,0220h-026Fh,02A0h-02EFh,0320h-036Fh,03A0h-03EFh,0420h-046Fh,04A0h-04EFh,0520h-056Fh,05A0h-05EFh,0620h-066Fh,06A0h-06EFh,0720h-076Fh,07A0h-07EFh,0820h-086Fh,08A0h-08EFh,0920h-096Fh,09A0h-09EFh,0A20h-0A6Fh,0AA0h-0AEFh,0B20h-0B6Fh,0BA0h-0BEFh,0C20h-0C6Fh,0CA0h-0CBFh \
  -AABS1=020h-07Fh,0A0h-0EFh,0120h-016Fh,01A0h-01EFh,0220h-026Fh,02A0h-02EFh,0320h-036Fh,03A0h-03EFh,0420h-046Fh,04A0h-04EFh,0520h-056Fh,05A0h-05EFh,0620h-066Fh,06A0h-06EFh,0720h-076Fh,07A0h-07EFh,0820h-086Fh,08A0h-08EFh,0920h-096Fh,09A0h-09EFh,0A20h-0A6Fh,0AA0h-0AEFh,0B20h-0B6Fh,0BA0h-0BEFh,0C20h-0C6Fh,0CA0h-0CBFh \
  -ASFR0=00h-01Fh -ASFR1=080h-09Fh -ASFR2=0100h-011Fh -ASFR3=0180h-019Fh \
  -ASFR4=0200h-021Fh -ASFR5=0280h-029Fh -ASFR6=0300h-031Fh \
  -ASFR7=0380h-039Fh -ASFR8=0400h-041Fh -ASFR9=0480h-049Fh \
  -ASFR10=0500h-051Fh -ASFR11=0580h-059Fh -ASFR12=0600h-061Fh \
  -ASFR13=0680h-069Fh -ASFR14=0700h-071Fh -ASFR15=0780h-079Fh \
  -ASFR16=0800h-081Fh -ASFR17=0880h-089Fh -ASFR18=0900h-091Fh \
  -ASFR19=0980h-099Fh -ASFR20=0A00h-0A1Fh -ASFR21=0A80h-0A9Fh \
  -ASFR22=0B00h-0B1Fh -ASFR23=0B80h-0B9Fh -ASFR24=0C00h-0C1Fh \
  -ASFR25=0C80h-0C9Fh -ASFR26=0D00h-0D6Fh -ASFR27=0D80h-0DEFh \
  -ASFR28=0E00h-0E6Fh -ASFR29=0E80h-0EEFh -ASFR30=0F00h-0F6Fh \
  -ASFR31=0F80h-0FEFh -preset_vec=00h,intentry=04h,init,end_init \
  -ppowerup=CODE -pcinit=CODE -pfunctab=CODE -ACONFIG=08007h-0800Ah \
  -pconfig=CONFIG -DCONFIG=2 -AIDLOC=08000h-08003h -pidloc=IDLOC -DIDLOC=2 \
  -AEEDATA=00h-0FFh/0F000h -peeprom_data=EEDATA -DEEDATA=2 -DCODE=2 \
  -DSTRCODE=2 -DSTRING=2 -DCONST=2 -DENTRY=2 -k /tmp/xccvZ83iB.obj \
  dist/default/production/defcon25.production.obj 

Object code version is 3.11

Machine type is 16LF18346



                Name                               Link     Load   Length Selector   Space Scale
/tmp/xccvZ83iB.obj
                end_init                             16       16        2        8       0
                reset_vec                             0        0        2        0       0
                config                             8007     8007        4    1000E       0
dist/default/production/defcon25.production.obj
                cinit                                18       18       CD        8       0
                intentry                              4        4       12        8       0
                text105                             800      800        1        8       0
                text104                            3417     3417        B     682E       0
                text103                            347E     347E        D     68FC       0
                text101                            3553     3553       16     6AA6       0
                text100                            3569     3569       16     6AD2       0
                text99                             357F     357F       16     6AFE       0
                text98                             3595     3595       16     6B2A       0
                text97                             33F9     33F9        A     67F2       0
                text96                             2DD4     2DD4       55     5BA8       0
                text95                             3422     3422        B     6844       0
                text94                             342D     342D        B     685A       0
                text93                             344E     344E        C     689C       0
                text92                             345A     345A        C     68B4       0
                text91                             33D7     33D7        8     67AE       0
                text90                             33BF     33BF        6     677E       0
                text89                             33A7     33A7        3     674E       0
                text88                             3662     3662       1E     6CC4       0
                text87                             33AA     33AA        3     6754       0
                text86                             3403     3403        A     6806       0
                text85                             33AD     33AD        3     675A       0
                text84                             3438     3438        B     6870       0
                text83                             33B6     33B6        4     676C       0
                text82                             36BC     36BC       21     6D78       0
                text81                             33E7     33E7        9     67CE       0
                text80                             2CE0     2CE0       4E     59C0       0
                text79                             34D5     34D5       11     69AA       0
                text78                             35C1     35C1       18     6B82       0
                text77                             352C     352C       13     6A58       0
                text76                             3722     3722       26     6E44       0
                text75                             2E29     2E29       55     5C52       0
                text74                             3645     3645       1D     6C8A       0
                text73                             28E5     28E5       34     51CA       0
                text72                             3772     3772       2D     6EE4       0
                text71                             33C5     33C5        6     678A       0
                text70                             33CB     33CB        6     6796       0
                text69                             379F     379F       2F     6F3E       0
                text68                             2A33     2A33       41     5466       0
                text67                             2D2E     2D2E       52     5A5C       0
                text66                             3748     3748       2A     6E90       0
                text65                             340D     340D        A     681A       0
                text64                             3680     3680       1E     6D00       0
                text63                             21D2     21D2       77     43A4       0
                text62                             215F     215F       73     42BE       0
                text61                             1A00     1A00       5F     3400       0
                text60                             3508     3508       12     6A10       0
                text59                             369E     369E       1E     6D3C       0
                text58                             34E6     34E6       11     69CC       0
                text57                             208C     208C       65     4118       0
                text56                             33F0     33F0        9     67E0       0
                text55                             2A74     2A74       41     54E8       0
                text54                             20F1     20F1       6E     41E2       0
                text53                             37CE     37CE       32     6F9C       0
                text52                             2B38     2B38       43     5670       0
                text51                             2C4E     2C4E       48     589C       0
                text50                             2AB5     2AB5       41     556A       0
                text49                             353F     353F       14     6A7E       0
                text48                             2882     2882       31     5104       0
                text47                             33BA     33BA        5     6774       0
                text46                             33B0     33B0        3     6760       0
                text45                             34A7     34A7        F     694E       0
                text44                             3443     3443        B     6886       0
                text43                             33B3     33B3        3     6766       0
                text42                             35F3     35F3       1B     6BE6       0
                text41                             348B     348B        E     6916       0
                text40                             1A5F     1A5F      1CD     34BE       0
                text39                             34C5     34C5       10     698A       0
                text38                             33D1     33D1        6     67A2       0
                text37                             3499     3499        E     6932       0
                text36                              7FA      7FA        6        8       0
                text35                             2AF6     2AF6       42     55EC       0
                text34                             36FE     36FE       24     6DFC       0
                text33                              801      801       18     1002       0
                text32                             35D9     35D9       1A     6BB2       0
                text31                             351A     351A       12     6A34       0
                text30                             2D80     2D80       54     5B00       0
                text29                             23E5     23E5       A3     47CA       0
                text28                             34F7     34F7       11     69EE       0
                text27                             2488     2488       BB     4910       0
                text26                             2ED9     2ED9       62     5DB2       0
                text25                             2C07     2C07       47     580E       0
                text24                             2C96     2C96       4A     592C       0
                text23                             1028     1028       BB     2050       0
                text22                             28B3     28B3       32     5166       0
                text21                             1001     1001       27     2002       0
                text20                             2B7B     2B7B       46     56F6       0
                text19                               E5       E5      57C        8       0
                swtext1                            3000     3000        C     6000       0
                text18                              819      819      7E7     1032       0
                text17                             1E09     1E09      1F7     3C12       0
                text16                             1C2C     1C2C      1DD     3858       0
                text15                             2643     2643      1BD     4C86       0
                text14                             10E3     10E3      71D     21C6       0
                text13                             36DD     36DD       21     6DBA       0
                text12                             22C3     22C3       84     4586       0
                text11                             360E     360E       1B     6C1C       0
                text10                             33DF     33DF        8     67BE       0
                text9                              34B6     34B6        F     696C       0
                text8                              2028     2028       64     4050       0
                text7                               764      764       96        8       0
                text6                              2F3B     2F3B       62     5E76       0
                text5                              2F9D     2F9D       63     5F3A       0
                text4                              2E7E     2E7E       5B     5CFC       0
                text3                              2347     2347       9E     468E       0
                text2                              2249     2249       7A     4492       0
                text1                              29C0     29C0       39     5380       0
                maintext                            661      661      103        8       0
                cstackBANK0                          20       20       4F       20       1
                cstackCOMMON                         70       70        C       70       1
                cstackBANK1                          DD       DD        8       A0       1
                clrtext                            3466     3466        C     68CC       0
                inittext                           3472     3472        C     68E4       0
                bssBANK11                           5A0      5A0       28      5A0       1
                dataBANK10                          520      520       3A      520       1
                bssBANK9                            4A0      4A0       3D      4A0       1
                dataBANK8                           420      420       38      420       1
                dataBANK7                           3A0      3A0       38      3A0       1
                dataBANK6                           320      320       37      320       1
                dataBANK5                           2CA      2CA       26      2A0       1
                bssBANK5                            2A0      2A0       2A      2A0       1
                dataBANK4                           220      220       46      220       1
                dataBANK3                           1D1      1D1       1C      1A0       1
                bssBANK3                            1A0      1A0       31      1A0       1
                dataBANK2                           167      167        2      120       1
                bssBANK2                            120      120       47      120       1
                dataBANK1                            C7       C7       16       A0       1
                bssBANK1                             A0       A0       27       A0       1
                bssCOMMON                            7C       7C        1       70       1
                stringtext76                       3C02     3C02        3     7000       0
                stringtext75                       3BFE     3BFE        4     7000       0
                stringtext74                       3BF9     3BF9        5     7000       0
                stringtext73                       3BF4     3BF4        5     7000       0
                stringtext72                       3BEF     3BEF        5     7000       0
                stringtext71                       3BEA     3BEA        5     7000       0
                stringtext70                       3BE5     3BE5        5     7000       0
                stringtext69                       3BE0     3BE0        5     7000       0
                stringtext68                       3BDB     3BDB        5     7000       0
                stringtext67                       3BD6     3BD6        5     7000       0
                stringtext66                       3BD1     3BD1        5     7000       0
                stringtext65                       3BCC     3BCC        5     7000       0
                stringtext64                       3BC7     3BC7        5     7000       0
                stringtext63                       3BC2     3BC2        5     7000       0
                stringtext62                       3BBD     3BBD        5     7000       0
                stringtext61                       3BB8     3BB8        5     7000       0
                stringtext60                       3BB3     3BB3        5     7000       0
                stringtext59                       3BAE     3BAE        5     7000       0
                stringtext58                       3BA9     3BA9        5     7000       0
                stringtext57                       3BA3     3BA3        6     7000       0
                stringtext56                       3B9D     3B9D        6     7000       0
                stringtext55                       3B97     3B97        6     7000       0
                stringtext54                       3B91     3B91        6     7000       0
                stringtext53                       3B8A     3B8A        7     7000       0
                stringtext52                       3B83     3B83        7     7000       0
                stringtext51                       3B7C     3B7C        7     7000       0
                stringtext50                       3B75     3B75        7     7000       0
                stringtext49                       3B6E     3B6E        7     7000       0
                stringtext48                       3B66     3B66        8     7000       0
                stringtext47                       3B5E     3B5E        8     7000       0
                stringtext46                       3B56     3B56        8     7000       0
                stringtext45                       3B4E     3B4E        8     7000       0
                stringtext44                       3B46     3B46        8     7000       0
                stringtext43                       3B3E     3B3E        8     7000       0
                stringtext42                       3B36     3B36        8     7000       0
                stringtext41                       3B2E     3B2E        8     7000       0
                stringtext40                       3B25     3B25        9     7000       0
                stringtext39                       3B1C     3B1C        9     7000       0
                stringtext38                       3B13     3B13        9     7000       0
                stringtext37                       3B0A     3B0A        9     7000       0
                stringtext36                       3B01     3B01        9     7000       0
                stringtext35                       3AF7     3AF7        A     7000       0
                stringtext34                       3AED     3AED        A     7000       0
                stringtext33                       3AE2     3AE2        B     7000       0
                stringtext32                       3AD7     3AD7        B     7000       0
                stringtext31                       3ACB     3ACB        C     7000       0
                stringtext30                       3ABF     3ABF        C     7000       0
                stringtext29                       3AB2     3AB2        D     7000       0
                stringtext28                       3AA5     3AA5        D     7000       0
                stringtext27                       3A98     3A98        D     7000       0
                stringtext26                       3A89     3A89        F     7000       0
                stringtext25                       3A79     3A79       10     7000       0
                stringtext24                       3A68     3A68       11     7000       0
                stringtext23                       3A57     3A57       11     7000       0
                stringtext22                       3A45     3A45       12     7000       0
                stringtext21                       3A32     3A32       13     7000       0
                stringtext20                       3A1F     3A1F       13     7000       0
                stringtext19                       3A0A     3A0A       15     7000       0
                stringtext18                       39F4     39F4       16     7000       0
                stringtext17                       39DD     39DD       17     7000       0
                stringtext16                       39C3     39C3       1A     7000       0
                stringtext15                       39A8     39A8       1B     7000       0
                stringtext14                       398D     398D       1B     7000       0
                stringtext13                       3971     3971       1C     7000       0
                stringtext12                       3954     3954       1D     7000       0
                stringtext11                       3937     3937       1D     7000       0
                stringtext10                       3919     3919       1E     7000       0
                stringtext9                        38F7     38F7       22     7000       0
                stringtext8                        38D4     38D4       23     7000       0
                stringtext7                        38B0     38B0       24     7000       0
                stringtext6                        3888     3888       28     7000       0
                stringtext5                        385D     385D       2B     7000       0
                stringtext4                        382F     382F       2E     7000       0
                stringtext3                        3800     3800       2F     7000       0
                stringtext2                        2800     2800       82     5000       0
                stringtext1                        1800     1800      200     3000       0
                idataBIGRAM                        2543     2543      100     4A86       0
                idataBANK10                        29F9     29F9       3A     53F2       0
                idataBANK8                         2950     2950       38     52A0       0
                idataBANK7                         2988     2988       38     5310       0
                idataBANK6                         2919     2919       37     5232       0
                idataBANK5                         2002     2002       26     4004       0
                idataBANK4                         2BC1     2BC1       46     5782       0
                idataBANK3                         3629     3629       1C     6C52       0
                idataBANK2                            2        2        2        0       0
                idataBANK1                         35AB     35AB       16     6B56       0

TOTAL           Name                               Link     Load   Length     Space
        CLASS   STACK          

        CLASS   CODE           
                end_init                             16       16        2         0
                cinit                                18       18       CD         0
                intentry                              4        4       12         0
                reset_vec                             0        0        2         0
                text105                             800      800        1         0
                text104                            3417     3417        B         0
                text103                            347E     347E        D         0
                text101                            3553     3553       16         0
                text100                            3569     3569       16         0
                text99                             357F     357F       16         0
                text98                             3595     3595       16         0
                text97                             33F9     33F9        A         0
                text96                             2DD4     2DD4       55         0
                text95                             3422     3422        B         0
                text94                             342D     342D        B         0
                text93                             344E     344E        C         0
                text92                             345A     345A        C         0
                text91                             33D7     33D7        8         0
                text90                             33BF     33BF        6         0
                text89                             33A7     33A7        3         0
                text88                             3662     3662       1E         0
                text87                             33AA     33AA        3         0
                text86                             3403     3403        A         0
                text85                             33AD     33AD        3         0
                text84                             3438     3438        B         0
                text83                             33B6     33B6        4         0
                text82                             36BC     36BC       21         0
                text81                             33E7     33E7        9         0
                text80                             2CE0     2CE0       4E         0
                text79                             34D5     34D5       11         0
                text78                             35C1     35C1       18         0
                text77                             352C     352C       13         0
                text76                             3722     3722       26         0
                text75                             2E29     2E29       55         0
                text74                             3645     3645       1D         0
                text73                             28E5     28E5       34         0
                text72                             3772     3772       2D         0
                text71                             33C5     33C5        6         0
                text70                             33CB     33CB        6         0
                text69                             379F     379F       2F         0
                text68                             2A33     2A33       41         0
                text67                             2D2E     2D2E       52         0
                text66                             3748     3748       2A         0
                text65                             340D     340D        A         0
                text64                             3680     3680       1E         0
                text63                             21D2     21D2       77         0
                text62                             215F     215F       73         0
                text61                             1A00     1A00       5F         0
                text60                             3508     3508       12         0
                text59                             369E     369E       1E         0
                text58                             34E6     34E6       11         0
                text57                             208C     208C       65         0
                text56                             33F0     33F0        9         0
                text55                             2A74     2A74       41         0
                text54                             20F1     20F1       6E         0
                text53                             37CE     37CE       32         0
                text52                             2B38     2B38       43         0
                text51                             2C4E     2C4E       48         0
                text50                             2AB5     2AB5       41         0
                text49                             353F     353F       14         0
                text48                             2882     2882       31         0
                text47                             33BA     33BA        5         0
                text46                             33B0     33B0        3         0
                text45                             34A7     34A7        F         0
                text44                             3443     3443        B         0
                text43                             33B3     33B3        3         0
                text42                             35F3     35F3       1B         0
                text41                             348B     348B        E         0
                text40                             1A5F     1A5F      1CD         0
                text39                             34C5     34C5       10         0
                text38                             33D1     33D1        6         0
                text37                             3499     3499        E         0
                text36                              7FA      7FA        6         0
                text35                             2AF6     2AF6       42         0
                text34                             36FE     36FE       24         0
                text33                              801      801       18         0
                text32                             35D9     35D9       1A         0
                text31                             351A     351A       12         0
                text30                             2D80     2D80       54         0
                text29                             23E5     23E5       A3         0
                text28                             34F7     34F7       11         0
                text27                             2488     2488       BB         0
                text26                             2ED9     2ED9       62         0
                text25                             2C07     2C07       47         0
                text24                             2C96     2C96       4A         0
                text23                             1028     1028       BB         0
                text22                             28B3     28B3       32         0
                text21                             1001     1001       27         0
                text20                             2B7B     2B7B       46         0
                text19                               E5       E5      57C         0
                text18                              819      819      7E7         0
                text17                             1E09     1E09      1F7         0
                text16                             1C2C     1C2C      1DD         0
                text15                             2643     2643      1BD         0
                text14                             10E3     10E3      71D         0
                text13                             36DD     36DD       21         0
                text12                             22C3     22C3       84         0
                text11                             360E     360E       1B         0
                text10                             33DF     33DF        8         0
                text9                              34B6     34B6        F         0
                text8                              2028     2028       64         0
                text7                               764      764       96         0
                text6                              2F3B     2F3B       62         0
                text5                              2F9D     2F9D       63         0
                text4                              2E7E     2E7E       5B         0
                text3                              2347     2347       9E         0
                text2                              2249     2249       7A         0
                text1                              29C0     29C0       39         0
                maintext                            661      661      103         0
                clrtext                            3466     3466        C         0
                inittext                           3472     3472        C         0
                idataBIGRAM                        2543     2543      100         0
                idataBANK10                        29F9     29F9       3A         0
                idataBANK8                         2950     2950       38         0
                idataBANK7                         2988     2988       38         0
                idataBANK6                         2919     2919       37         0
                idataBANK5                         2002     2002       26         0
                idataBANK4                         2BC1     2BC1       46         0
                idataBANK3                         3629     3629       1C         0
                idataBANK2                            2        2        2         0
                idataBANK1                         35AB     35AB       16         0

        CLASS   STRCODE        
                stringtext76                       3C02     3C02        3         0
                stringtext75                       3BFE     3BFE        4         0
                stringtext74                       3BF9     3BF9        5         0
                stringtext73                       3BF4     3BF4        5         0
                stringtext72                       3BEF     3BEF        5         0
                stringtext71                       3BEA     3BEA        5         0
                stringtext70                       3BE5     3BE5        5         0
                stringtext69                       3BE0     3BE0        5         0
                stringtext68                       3BDB     3BDB        5         0
                stringtext67                       3BD6     3BD6        5         0
                stringtext66                       3BD1     3BD1        5         0
                stringtext65                       3BCC     3BCC        5         0
                stringtext64                       3BC7     3BC7        5         0
                stringtext63                       3BC2     3BC2        5         0
                stringtext62                       3BBD     3BBD        5         0
                stringtext61                       3BB8     3BB8        5         0
                stringtext60                       3BB3     3BB3        5         0
                stringtext59                       3BAE     3BAE        5         0
                stringtext58                       3BA9     3BA9        5         0
                stringtext57                       3BA3     3BA3        6         0
                stringtext56                       3B9D     3B9D        6         0
                stringtext55                       3B97     3B97        6         0
                stringtext54                       3B91     3B91        6         0
                stringtext53                       3B8A     3B8A        7         0
                stringtext52                       3B83     3B83        7         0
                stringtext51                       3B7C     3B7C        7         0
                stringtext50                       3B75     3B75        7         0
                stringtext49                       3B6E     3B6E        7         0
                stringtext48                       3B66     3B66        8         0
                stringtext47                       3B5E     3B5E        8         0
                stringtext46                       3B56     3B56        8         0
                stringtext45                       3B4E     3B4E        8         0
                stringtext44                       3B46     3B46        8         0
                stringtext43                       3B3E     3B3E        8         0
                stringtext42                       3B36     3B36        8         0
                stringtext41                       3B2E     3B2E        8         0
                stringtext40                       3B25     3B25        9         0
                stringtext39                       3B1C     3B1C        9         0
                stringtext38                       3B13     3B13        9         0
                stringtext37                       3B0A     3B0A        9         0
                stringtext36                       3B01     3B01        9         0
                stringtext35                       3AF7     3AF7        A         0
                stringtext34                       3AED     3AED        A         0
                stringtext33                       3AE2     3AE2        B         0
                stringtext32                       3AD7     3AD7        B         0
                stringtext31                       3ACB     3ACB        C         0
                stringtext30                       3ABF     3ABF        C         0
                stringtext29                       3AB2     3AB2        D         0
                stringtext28                       3AA5     3AA5        D         0
                stringtext27                       3A98     3A98        D         0
                stringtext26                       3A89     3A89        F         0
                stringtext25                       3A79     3A79       10         0
                stringtext24                       3A68     3A68       11         0
                stringtext23                       3A57     3A57       11         0
                stringtext22                       3A45     3A45       12         0
                stringtext21                       3A32     3A32       13         0
                stringtext20                       3A1F     3A1F       13         0
                stringtext19                       3A0A     3A0A       15         0
                stringtext18                       39F4     39F4       16         0
                stringtext17                       39DD     39DD       17         0
                stringtext16                       39C3     39C3       1A         0
                stringtext15                       39A8     39A8       1B         0
                stringtext14                       398D     398D       1B         0
                stringtext13                       3971     3971       1C         0
                stringtext12                       3954     3954       1D         0
                stringtext11                       3937     3937       1D         0
                stringtext10                       3919     3919       1E         0
                stringtext9                        38F7     38F7       22         0
                stringtext8                        38D4     38D4       23         0
                stringtext7                        38B0     38B0       24         0
                stringtext6                        3888     3888       28         0
                stringtext5                        385D     385D       2B         0
                stringtext4                        382F     382F       2E         0
                stringtext3                        3800     3800       2F         0
                stringtext2                        2800     2800       82         0
                stringtext1                        1800     1800      200         0

        CLASS   STRING         

        CLASS   CONST          
                swtext1                            3000     3000        C         0

        CLASS   ENTRY          

        CLASS   COMMON         
                cstackCOMMON                         70       70        C         1
                bssCOMMON                            7C       7C        1         1

        CLASS   BANK0          
                cstackBANK0                          20       20       4F         1

        CLASS   BANK1          
                cstackBANK1                          DD       DD        8         1
                dataBANK1                            C7       C7       16         1
                bssBANK1                             A0       A0       27         1

        CLASS   BANK2          
                dataBANK2                           167      167        2         1
                bssBANK2                            120      120       47         1

        CLASS   BANK3          
                dataBANK3                           1D1      1D1       1C         1
                bssBANK3                            1A0      1A0       31         1

        CLASS   BANK4          
                dataBANK4                           220      220       46         1

        CLASS   BANK5          
                dataBANK5                           2CA      2CA       26         1
                bssBANK5                            2A0      2A0       2A         1

        CLASS   BANK6          
                dataBANK6                           320      320       37         1

        CLASS   BANK7          
                dataBANK7                           3A0      3A0       38         1

        CLASS   BANK8          
                dataBANK8                           420      420       38         1

        CLASS   BANK9          
                bssBANK9                            4A0      4A0       3D         1

        CLASS   BANK10         
                dataBANK10                          520      520       3A         1

        CLASS   BANK11         
                bssBANK11                           5A0      5A0       28         1

        CLASS   BANK12         

        CLASS   BANK13         

        CLASS   BANK14         

        CLASS   BANK15         

        CLASS   BANK16         

        CLASS   BANK17         

        CLASS   BANK18         

        CLASS   BANK19         

        CLASS   BANK20         

        CLASS   BANK21         

        CLASS   BANK22         

        CLASS   BANK23         

        CLASS   BANK24         

        CLASS   BANK25         

        CLASS   BIGRAM         

        CLASS   RAM            

        CLASS   ABS1           
                abs_s1                               7E       7E        2         1
                abs_s1                              B30      B30       40         1
                abs_s1                              BA0      BA0       50         1
                abs_s1                              C20      C20       50         1
                abs_s1                              CA0      CA0       20         1
                abs_s1                             26F0     26F0        0         1

        CLASS   SFR0           

        CLASS   SFR1           

        CLASS   SFR2           

        CLASS   SFR3           

        CLASS   SFR4           

        CLASS   SFR5           

        CLASS   SFR6           

        CLASS   SFR7           

        CLASS   SFR8           

        CLASS   SFR9           

        CLASS   SFR10          

        CLASS   SFR11          

        CLASS   SFR12          

        CLASS   SFR13          

        CLASS   SFR14          

        CLASS   SFR15          

        CLASS   SFR16          

        CLASS   SFR17          

        CLASS   SFR18          

        CLASS   SFR19          

        CLASS   SFR20          

        CLASS   SFR21          

        CLASS   SFR22          

        CLASS   SFR23          

        CLASS   SFR24          

        CLASS   SFR25          

        CLASS   SFR26          

        CLASS   SFR27          

        CLASS   SFR28          

        CLASS   SFR29          

        CLASS   SFR30          

        CLASS   SFR31          

        CLASS   CONFIG         
                config                             8007     8007        4         0

        CLASS   IDLOC          

        CLASS   EEDATA         

        CLASS   BANK31         

        CLASS   BANK30         

        CLASS   BANK29         

        CLASS   BANK28         

        CLASS   BANK27         

        CLASS   BANK26         



SEGMENTS        Name                           Load    Length   Top    Selector   Space  Class     Delta

                reset_vec                      000000  000004  000004         0       0  CODE        2
                intentry                       000004  0007FD  000801         8       0  CODE        2
                cstackBANK0                    000020  00004F  00006F        20       1  BANK0       1
                cstackCOMMON                   000070  00000D  00007D        70       1  COMMON      1
                bssBANK1                       0000A0  000045  0000E5        A0       1  BANK1       1
                bssBANK2                       000120  000049  000169       120       1  BANK2       1
                bssBANK3                       0001A0  00004D  0001ED       1A0       1  BANK3       1
                dataBANK4                      000220  000046  000266       220       1  BANK4       1
                bssBANK5                       0002A0  000050  0002F0       2A0       1  BANK5       1
                dataBANK6                      000320  000037  000357       320       1  BANK6       1
                dataBANK7                      0003A0  000038  0003D8       3A0       1  BANK7       1
                dataBANK8                      000420  000038  000458       420       1  BANK8       1
                bssBANK9                       0004A0  00003D  0004DD       4A0       1  BANK9       1
                dataBANK10                     000520  00003A  00055A       520       1  BANK10      1
                bssBANK11                      0005A0  000028  0005C8       5A0       1  BANK11      1
                text33                         000801  000018  000819      1002       0  CODE        2
                text18                         000819  0007E7  001000      1032       0  CODE        2
                text21                         001001  000027  001028      2002       0  CODE        2
                text23                         001028  0000BB  0010E3      2050       0  CODE        2
                text14                         0010E3  00071D  001800      21C6       0  CODE        2
                stringtext1                    001800  000200  001A00      3000       0  STRCODE     2
                text61                         001A00  00005F  001A5F      3400       0  CODE        2
                text40                         001A5F  0001CD  001C2C      34BE       0  CODE        2
                text16                         001C2C  0001DD  001E09      3858       0  CODE        2
                text17                         001E09  0001F7  002000      3C12       0  CODE        2
                idataBANK5                     002002  000026  002028      4004       0  CODE        2
                text8                          002028  000064  00208C      4050       0  CODE        2
                text57                         00208C  000065  0020F1      4118       0  CODE        2
                text54                         0020F1  00006E  00215F      41E2       0  CODE        2
                text62                         00215F  000073  0021D2      42BE       0  CODE        2
                text63                         0021D2  000077  002249      43A4       0  CODE        2
                text2                          002249  00007A  0022C3      4492       0  CODE        2
                text12                         0022C3  000084  002347      4586       0  CODE        2
                text3                          002347  00009E  0023E5      468E       0  CODE        2
                text29                         0023E5  0000A3  002488      47CA       0  CODE        2
                text27                         002488  0000BB  002543      4910       0  CODE        2
                idataBIGRAM                    002543  000100  002643      4A86       0  CODE        2
                text15                         002643  0001BD  002800      4C86       0  CODE        2
                stringtext2                    002800  000082  002882      5000       0  STRCODE     2
                text48                         002882  000031  0028B3      5104       0  CODE        2
                text22                         0028B3  000032  0028E5      5166       0  CODE        2
                text73                         0028E5  000034  002919      51CA       0  CODE        2
                idataBANK6                     002919  000037  002950      5232       0  CODE        2
                idataBANK8                     002950  000038  002988      52A0       0  CODE        2
                idataBANK7                     002988  000038  0029C0      5310       0  CODE        2
                text1                          0029C0  000039  0029F9      5380       0  CODE        2
                idataBANK10                    0029F9  00003A  002A33      53F2       0  CODE        2
                text68                         002A33  000041  002A74      5466       0  CODE        2
                text55                         002A74  000041  002AB5      54E8       0  CODE        2
                text50                         002AB5  000041  002AF6      556A       0  CODE        2
                text35                         002AF6  000042  002B38      55EC       0  CODE        2
                text52                         002B38  000043  002B7B      5670       0  CODE        2
                text20                         002B7B  000046  002BC1      56F6       0  CODE        2
                idataBANK4                     002BC1  000046  002C07      5782       0  CODE        2
                text25                         002C07  000047  002C4E      580E       0  CODE        2
                text51                         002C4E  000048  002C96      589C       0  CODE        2
                text24                         002C96  00004A  002CE0      592C       0  CODE        2
                text80                         002CE0  00004E  002D2E      59C0       0  CODE        2
                text67                         002D2E  000052  002D80      5A5C       0  CODE        2
                text30                         002D80  000054  002DD4      5B00       0  CODE        2
                text96                         002DD4  000055  002E29      5BA8       0  CODE        2
                text75                         002E29  000055  002E7E      5C52       0  CODE        2
                text4                          002E7E  00005B  002ED9      5CFC       0  CODE        2
                text26                         002ED9  000062  002F3B      5DB2       0  CODE        2
                text6                          002F3B  000062  002F9D      5E76       0  CODE        2
                text5                          002F9D  000063  003000      5F3A       0  CODE        2
                swtext1                        003000  00000C  00300C      6000       0  CONST       2
                text89                         0033A7  000003  0033AA      674E       0  CODE        2
                text87                         0033AA  000003  0033AD      6754       0  CODE        2
                text85                         0033AD  000003  0033B0      675A       0  CODE        2
                text46                         0033B0  000003  0033B3      6760       0  CODE        2
                text43                         0033B3  000003  0033B6      6766       0  CODE        2
                text83                         0033B6  000004  0033BA      676C       0  CODE        2
                text47                         0033BA  000005  0033BF      6774       0  CODE        2
                text90                         0033BF  000006  0033C5      677E       0  CODE        2
                text71                         0033C5  000006  0033CB      678A       0  CODE        2
                text70                         0033CB  000006  0033D1      6796       0  CODE        2
                text38                         0033D1  000006  0033D7      67A2       0  CODE        2
                text91                         0033D7  000008  0033DF      67AE       0  CODE        2
                text10                         0033DF  000008  0033E7      67BE       0  CODE        2
                text81                         0033E7  000009  0033F0      67CE       0  CODE        2
                text56                         0033F0  000009  0033F9      67E0       0  CODE        2
                text97                         0033F9  00000A  003403      67F2       0  CODE        2
                text86                         003403  00000A  00340D      6806       0  CODE        2
                text65                         00340D  00000A  003417      681A       0  CODE        2
                text104                        003417  00000B  003422      682E       0  CODE        2
                text95                         003422  00000B  00342D      6844       0  CODE        2
                text94                         00342D  00000B  003438      685A       0  CODE        2
                text84                         003438  00000B  003443      6870       0  CODE        2
                text44                         003443  00000B  00344E      6886       0  CODE        2
                text93                         00344E  00000C  00345A      689C       0  CODE        2
                text92                         00345A  00000C  003466      68B4       0  CODE        2
                clrtext                        003466  00000C  003472      68CC       0  CODE        2
                inittext                       003472  00000C  00347E      68E4       0  CODE        2
                text103                        00347E  00000D  00348B      68FC       0  CODE        2
                text41                         00348B  00000E  003499      6916       0  CODE        2
                text37                         003499  00000E  0034A7      6932       0  CODE        2
                text45                         0034A7  00000F  0034B6      694E       0  CODE        2
                text9                          0034B6  00000F  0034C5      696C       0  CODE        2
                text39                         0034C5  000010  0034D5      698A       0  CODE        2
                text79                         0034D5  000011  0034E6      69AA       0  CODE        2
                text58                         0034E6  000011  0034F7      69CC       0  CODE        2
                text28                         0034F7  000011  003508      69EE       0  CODE        2
                text60                         003508  000012  00351A      6A10       0  CODE        2
                text31                         00351A  000012  00352C      6A34       0  CODE        2
                text77                         00352C  000013  00353F      6A58       0  CODE        2
                text49                         00353F  000014  003553      6A7E       0  CODE        2
                text101                        003553  000016  003569      6AA6       0  CODE        2
                text100                        003569  000016  00357F      6AD2       0  CODE        2
                text99                         00357F  000016  003595      6AFE       0  CODE        2
                text98                         003595  000016  0035AB      6B2A       0  CODE        2
                idataBANK1                     0035AB  000016  0035C1      6B56       0  CODE        2
                text78                         0035C1  000018  0035D9      6B82       0  CODE        2
                text32                         0035D9  00001A  0035F3      6BB2       0  CODE        2
                text42                         0035F3  00001B  00360E      6BE6       0  CODE        2
                text11                         00360E  00001B  003629      6C1C       0  CODE        2
                idataBANK3                     003629  00001C  003645      6C52       0  CODE        2
                text74                         003645  00001D  003662      6C8A       0  CODE        2
                text88                         003662  00001E  003680      6CC4       0  CODE        2
                text64                         003680  00001E  00369E      6D00       0  CODE        2
                text59                         00369E  00001E  0036BC      6D3C       0  CODE        2
                text82                         0036BC  000021  0036DD      6D78       0  CODE        2
                text13                         0036DD  000021  0036FE      6DBA       0  CODE        2
                text34                         0036FE  000024  003722      6DFC       0  CODE        2
                text76                         003722  000026  003748      6E44       0  CODE        2
                text66                         003748  00002A  003772      6E90       0  CODE        2
                text72                         003772  00002D  00379F      6EE4       0  CODE        2
                text69                         00379F  00002F  0037CE      6F3E       0  CODE        2
                text53                         0037CE  000032  003800      6F9C       0  CODE        2
                stringtext3                    003800  000405  003C05      7000       0  STRCODE     2
                config                         008007  000004  00800B     1000E       0  CONFIG      2


UNUSED ADDRESS RANGES

        Name                Unused          Largest block    Delta
        BANK0            0006F-0006F               1           1
        BANK1            000E5-000EF               B           1
        BANK10           0055A-0056F              16           1
        BANK11           005C8-005EF              28           1
        BANK12           00620-0066F              50           1
        BANK13           006A0-006EF              50           1
        BANK14           00720-0076F              50           1
        BANK15           007A0-007EF              50           1
        BANK16           00820-0086F              50           1
        BANK17           008A0-008EF              50           1
        BANK18           00920-0096F              50           1
        BANK19           009A0-009EF              50           1
        BANK2            00169-0016F               7           1
        BANK20           00A20-00A6F              50           1
        BANK21           00AA0-00AEF              50           1
        BANK22           00B20-00B2F              10           1
        BANK3            001ED-001EF               3           1
        BANK4            00266-0026F               A           1
        BANK6            00357-0036F              19           1
        BANK7            003D8-003EF              18           1
        BANK8            00458-0046F              18           1
        BANK9            004DD-004EF              13           1
        BIGRAM           02000-027EF             7F0           1
        CODE             01000-01000               1           2
                         02000-02001               2
                         0300C-033A6             39B
                         03C05-03FFF             3FB
        COMMON           0007D-0007D               1           1
        CONST            01000-01000               1           2
                         02000-02001               2
                         0300C-033A6             100
                         03C05-03FFF             100
        EEDATA           0F000-0F0FF             100           2
        ENTRY            01000-01000               1           2
                         02000-02001               2
                         0300C-033A6             100
                         03C05-03FFF             100
        IDLOC            08000-08003               4           2
        RAM              0006F-0006F               1           1
                         000E5-000EF               B
                         00169-0016F               7
                         001ED-001EF               3
                         00266-0026F               A
                         00357-0036F              19
                         003D8-003EF              18
                         00458-0046F              18
                         004DD-004EF              13
                         0055A-0056F              16
                         005C8-005EF              28
                         00620-0066F              50
                         006A0-006EF              50
                         00720-0076F              50
                         007A0-007EF              50
                         00820-0086F              50
                         008A0-008EF              50
                         00920-0096F              50
                         009A0-009EF              50
                         00A20-00A6F              50
                         00AA0-00AEF              50
                         00B20-00B2F              10
        SFR0             00000-0001F              20           1
        SFR1             00080-0009F              20           1
        SFR10            00500-0051F              20           1
        SFR11            00580-0059F              20           1
        SFR12            00600-0061F              20           1
        SFR13            00680-0069F              20           1
        SFR14            00700-0071F              20           1
        SFR15            00780-0079F              20           1
        SFR16            00800-0081F              20           1
        SFR17            00880-0089F              20           1
        SFR18            00900-0091F              20           1
        SFR19            00980-0099F              20           1
        SFR2             00100-0011F              20           1
        SFR20            00A00-00A1F              20           1
        SFR21            00A80-00A9F              20           1
        SFR22            00B00-00B1F              20           1
        SFR23            00B80-00B9F              20           1
        SFR24            00C00-00C1F              20           1
        SFR25            00C80-00C9F              20           1
        SFR26            00D00-00D6F              70           1
        SFR27            00D80-00DEF              70           1
        SFR28            00E00-00E6F              70           1
        SFR29            00E80-00EEF              70           1
        SFR3             00180-0019F              20           1
        SFR30            00F00-00F6F              70           1
        SFR31            00F80-00FEF              70           1
        SFR4             00200-0021F              20           1
        SFR5             00280-0029F              20           1
        SFR6             00300-0031F              20           1
        SFR7             00380-0039F              20           1
        SFR8             00400-0041F              20           1
        SFR9             00480-0049F              20           1
        STACK            02398-026EF             358           1
        STRCODE          01000-01000               1           2
                         02000-02001               2
                         0300C-033A6             39B
                         03C05-03FFF             3FB
        STRING           01000-01000               1           2
                         02000-02001               2
                         0300C-033A6             100
                         03C05-03FFF             100

                                  Symbol Table

?_TMR0_Read16bitTimer                        cstackCOMMON 00071
?___almod                                    cstackBANK0  0002B
?___lmul                                     cstackCOMMON 00071
?___lwdiv                                    cstackCOMMON 00071
?___lwmod                                    cstackBANK0  0002B
?___wmul                                     cstackCOMMON 00071
?_displayCharReverse                         cstackCOMMON 00071
?_locked_get_lock_leds                       cstackCOMMON 00071
?_locked_get_unlock_leds                     cstackCOMMON 00071
?_rand                                       cstackBANK0  00024
?_sprintf                                    cstackBANK0  0002F
?_strlen                                     cstackCOMMON 00071
PIN_MANAGER_Initialize@state                 cstackCOMMON 00071
PWM1_LoadDutyValue@dutyValue                 cstackCOMMON 00071
PWM2_LoadDutyValue@dutyValue                 cstackCOMMON 00071
PWM5_LoadDutyValue@dutyValue                 cstackCOMMON 00071
PWM6_LoadDutyValue@dutyValue                 cstackCOMMON 00071
SPI1_Exchange8bit@data                       cstackCOMMON 00071
SPI1_Exchange8bitBuffer@bufLen               cstackCOMMON 00072
SPI1_Exchange8bitBuffer@bytesWritten         cstackCOMMON 00078
SPI1_Exchange8bitBuffer@dataIn               cstackCOMMON 00077
SPI1_Exchange8bitBuffer@dataOut              cstackCOMMON 00073
TMR0_Read16bitTimer@readVal                  cstackCOMMON 00078
TMR0_Read16bitTimer@readValHigh              cstackCOMMON 0007B
TMR0_Read16bitTimer@readValLow               cstackCOMMON 0007A
TMR0_SetInterruptHandler@InterruptHandler    cstackCOMMON 00071
_ANSELA                                      (abs)        0018C
_ANSELB                                      (abs)        0018D
_ANSELC                                      (abs)        0018E
_CCP1CON                                     (abs)        00293
_CCP1CONbits                                 (abs)        00293
_CCP2CON                                     (abs)        00297
_CCP2CONbits                                 (abs)        00297
_CCPR1H                                      (abs)        00292
_CCPR1L                                      (abs)        00291
_CCPR2H                                      (abs)        00296
_CCPR2L                                      (abs)        00295
_CCPTMRSbits                                 (abs)        0029F
_FLASHY_TEXT_SECRET_TEST                     dataBANK1    000DB
_GIE                                         (abs)        0005F
_INTCONbits                                  (abs)        0000B
_INTERRUPT_InterruptManager                  intentry     00004
_LATA                                        (abs)        0010C
_LATB                                        (abs)        0010D
_LATBbits                                    (abs)        0010D
_LATC                                        (abs)        0010E
_LATCbits                                    (abs)        0010E
_Leds_idx                                    dataBANK1    000D7
_NVMADRH                                     (abs)        00892
_NVMADRL                                     (abs)        00891
_NVMCON1bits                                 (abs)        00895
_NVMCON2                                     (abs)        00896
_NVMDATH                                     (abs)        00894
_NVMDATL                                     (abs)        00893
_ODCONA                                      (abs)        0028C
_ODCONB                                      (abs)        0028D
_ODCONC                                      (abs)        0028E
_OSCCON1                                     (abs)        00919
_OSCCON3                                     (abs)        0091B
_OSCEN                                       (abs)        0091D
_OSCFRQ                                      (abs)        0091F
_OSCILLATOR_Initialize                       text97       033F9
_OSCTUNE                                     (abs)        0091E
_PIE0bits                                    (abs)        00090
_PIN_MANAGER_Initialize                      text96       02DD4
_PIR0bits                                    (abs)        00010
_PIR1bits                                    (abs)        00011
_PIR2bits                                    (abs)        00012
_PLLR                                        (abs)        048E0
_PORTAbits                                   (abs)        0000C
_PORTBbits                                   (abs)        0000D
_PORTCbits                                   (abs)        0000E
_PPSLOCK                                     (abs)        00E0F
_PPSLOCKbits                                 (abs)        00E0F
_PR2                                         (abs)        0001E
_PR4                                         (abs)        00416
_PWM1_Initialize                             text95       03422
_PWM1_LoadDutyValue                          text101      03553
_PWM2_Initialize                             text94       0342D
_PWM2_LoadDutyValue                          text100      03569
_PWM5CON                                     (abs)        00619
_PWM5DCH                                     (abs)        00618
_PWM5DCL                                     (abs)        00617
_PWM5_Initialize                             text93       0344E
_PWM5_LoadDutyValue                          text99       0357F
_PWM6CON                                     (abs)        0061C
_PWM6DCH                                     (abs)        0061B
_PWM6DCL                                     (abs)        0061A
_PWM6_Initialize                             text92       0345A
_PWM6_LoadDutyValue                          text98       03595
_PWMTMRSbits                                 (abs)        0061F
_RB6PPSbits                                  (abs)        00E9E
_RC0PPSbits                                  (abs)        00EA0
_RC1PPSbits                                  (abs)        00EA1
_RC2PPSbits                                  (abs)        00EA2
_RC3PPSbits                                  (abs)        00EA3
_RC4PPSbits                                  (abs)        00EA4
_SPI1_Exchange8bit                           text81       033E7
_SPI1_Exchange8bitBuffer                     text80       02CE0
_SPI1_Initialize                             text91       033D7
_SSP1ADD                                     (abs)        00212
_SSP1BUF                                     (abs)        00211
_SSP1CLKPPSbits                              (abs)        00E20
_SSP1CON1                                    (abs)        00215
_SSP1CON1bits                                (abs)        00215
_SSP1DATPPSbits                              (abs)        00E21
_SSP1STAT                                    (abs)        00214
_SSP1STATbits                                (abs)        00214
_SYSTEM_Initialize                           text82       036BC
_Shot_Index                                  bssCOMMON    0007C
_Shot_Options                                dataBANK3    001D1
_Shot_Options_Long                           dataBANK5    002DE
_Slot_Wheel                                  dataBANK6    00320
_T0CON0                                      (abs)        00017
_T0CON0bits                                  (abs)        00017
_T0CON1                                      (abs)        00018
_T2CON                                       (abs)        0001F
_T2CONbits                                   (abs)        0001F
_T4CON                                       (abs)        00417
_T4CONbits                                   (abs)        00417
_TMR0H                                       (abs)        00016
_TMR0L                                       (abs)        00015
_TMR0_CallBack                               text104      03417
_TMR0_DefaultInterruptHandler                text105      00800
_TMR0_ISR                                    text103      0347E
_TMR0_Initialize                             text88       03662
_TMR0_InterruptHandler                       bssBANK1     000BE
_TMR0_Read16bitTimer                         text74       03645
_TMR0_SetInterruptHandler                    text90       033BF
_TMR0_StartTimer                             text89       033A7
_TMR2                                        (abs)        0001D
_TMR2_Initialize                             text86       03403
_TMR2_StartTimer                             text87       033AA
_TMR4                                        (abs)        00415
_TMR4_Initialize                             text84       03438
_TMR4_StartTimer                             text85       033AD
_TRISA                                       (abs)        0008C
_TRISB                                       (abs)        0008D
_TRISC                                       (abs)        0008E
_WDTCON                                      (abs)        00097
_WDT_Initialize                              text83       033B6
_WPUA                                        (abs)        0020C
_WPUB                                        (abs)        0020D
_WPUC                                        (abs)        0020E
__CFG_BOREN$ON                               (abs)        00000
__CFG_BORV$LOW                               (abs)        00000
__CFG_CLKOUTEN$OFF                           (abs)        00000
__CFG_CP$OFF                                 (abs)        00000
__CFG_CPD$OFF                                (abs)        00000
__CFG_CSWEN$ON                               (abs)        00000
__CFG_DEBUG$OFF                              (abs)        00000
__CFG_FCMEN$ON                               (abs)        00000
__CFG_FEXTOSC$OFF                            (abs)        00000
__CFG_LPBOREN$OFF                            (abs)        00000
__CFG_LVP$ON                                 (abs)        00000
__CFG_MCLRE$ON                               (abs)        00000
__CFG_PPS1WAY$ON                             (abs)        00000
__CFG_PWRTE$OFF                              (abs)        00000
__CFG_RSTOSC$HFINT32                         (abs)        00000
__CFG_STVREN$ON                              (abs)        00000
__CFG_WDTE$OFF                               (abs)        00000
__CFG_WRT$OFF                                (abs)        00000
__Habs1                                      abs1         00000
__Hbank0                                     bank0        00000
__Hbank1                                     bank1        00000
__Hbank10                                    bank10       00000
__Hbank11                                    bank11       00000
__Hbank12                                    bank12       00000
__Hbank13                                    bank13       00000
__Hbank14                                    bank14       00000
__Hbank15                                    bank15       00000
__Hbank16                                    bank16       00000
__Hbank17                                    bank17       00000
__Hbank18                                    bank18       00000
__Hbank19                                    bank19       00000
__Hbank2                                     bank2        00000
__Hbank20                                    bank20       00000
__Hbank21                                    bank21       00000
__Hbank22                                    bank22       00000
__Hbank23                                    bank23       00000
__Hbank24                                    bank24       00000
__Hbank25                                    bank25       00000
__Hbank26                                    bank26       00000
__Hbank27                                    bank27       00000
__Hbank28                                    bank28       00000
__Hbank29                                    bank29       00000
__Hbank3                                     bank3        00000
__Hbank30                                    bank30       00000
__Hbank31                                    bank31       00000
__Hbank4                                     bank4        00000
__Hbank5                                     bank5        00000
__Hbank6                                     bank6        00000
__Hbank7                                     bank7        00000
__Hbank8                                     bank8        00000
__Hbank9                                     bank9        00000
__Hbigram                                    bigram       00000
__HbssBANK1                                  bssBANK1     00000
__HbssBANK11                                 bssBANK11    00000
__HbssBANK2                                  bssBANK2     00000
__HbssBANK3                                  bssBANK3     00000
__HbssBANK5                                  bssBANK5     00000
__HbssBANK9                                  bssBANK9     00000
__HbssCOMMON                                 bssCOMMON    00000
__Hcinit                                     cinit        000E5
__Hclrtext                                   clrtext      00000
__Hcode                                      code         00000
__Hcommon                                    common       00000
__Hconfig                                    config       0800B
__HcstackBANK0                               cstackBANK0  00000
__HcstackBANK1                               cstackBANK1  00000
__HcstackCOMMON                              cstackCOMMON 00000
__HdataBANK1                                 dataBANK1    00000
__HdataBANK10                                dataBANK10   00000
__HdataBANK2                                 dataBANK2    00000
__HdataBANK3                                 dataBANK3    00000
__HdataBANK4                                 dataBANK4    00000
__HdataBANK5                                 dataBANK5    00000
__HdataBANK6                                 dataBANK6    00000
__HdataBANK7                                 dataBANK7    00000
__HdataBANK8                                 dataBANK8    00000
__Heeprom_data                               eeprom_data  00000
__Hend_init                                  end_init     00018
__Hfunctab                                   functab      00000
__HidataBANK1                                idataBANK1   00000
__HidataBANK10                               idataBANK10  00000
__HidataBANK2                                idataBANK2   00000
__HidataBANK3                                idataBANK3   00000
__HidataBANK4                                idataBANK4   00000
__HidataBANK5                                idataBANK5   00000
__HidataBANK6                                idataBANK6   00000
__HidataBANK7                                idataBANK7   00000
__HidataBANK8                                idataBANK8   00000
__HidataBIGRAM                               idataBIGRAM  00000
__Hidloc                                     idloc        00000
__Hinit                                      init         00016
__Hinittext                                  inittext     00000
__Hintentry                                  intentry     00016
__Hmaintext                                  maintext     00000
__Hpowerup                                   powerup      00000
__Hram                                       ram          00000
__Hreset_vec                                 reset_vec    00002
__Hsfr0                                      sfr0         00000
__Hsfr1                                      sfr1         00000
__Hsfr10                                     sfr10        00000
__Hsfr11                                     sfr11        00000
__Hsfr12                                     sfr12        00000
__Hsfr13                                     sfr13        00000
__Hsfr14                                     sfr14        00000
__Hsfr15                                     sfr15        00000
__Hsfr16                                     sfr16        00000
__Hsfr17                                     sfr17        00000
__Hsfr18                                     sfr18        00000
__Hsfr19                                     sfr19        00000
__Hsfr2                                      sfr2         00000
__Hsfr20                                     sfr20        00000
__Hsfr21                                     sfr21        00000
__Hsfr22                                     sfr22        00000
__Hsfr23                                     sfr23        00000
__Hsfr24                                     sfr24        00000
__Hsfr25                                     sfr25        00000
__Hsfr26                                     sfr26        00000
__Hsfr27                                     sfr27        00000
__Hsfr28                                     sfr28        00000
__Hsfr29                                     sfr29        00000
__Hsfr3                                      sfr3         00000
__Hsfr30                                     sfr30        00000
__Hsfr31                                     sfr31        00000
__Hsfr4                                      sfr4         00000
__Hsfr5                                      sfr5         00000
__Hsfr6                                      sfr6         00000
__Hsfr7                                      sfr7         00000
__Hsfr8                                      sfr8         00000
__Hsfr9                                      sfr9         00000
__Hspace_0                                   (abs)        0800B
__Hspace_1                                   (abs)        005C8
__Hspace_2                                   (abs)        00000
__Hspace_3                                   (abs)        00000
__Hstack                                     stack        00000
__Hstrings                                   strings      00000
__Hstringtext1                               stringtext1  00000
__Hstringtext10                              stringtext10 00000
__Hstringtext11                              stringtext11 00000
__Hstringtext12                              stringtext12 00000
__Hstringtext13                              stringtext13 00000
__Hstringtext14                              stringtext14 00000
__Hstringtext15                              stringtext15 00000
__Hstringtext16                              stringtext16 00000
__Hstringtext17                              stringtext17 00000
__Hstringtext18                              stringtext18 00000
__Hstringtext19                              stringtext19 00000
__Hstringtext2                               stringtext2  00000
__Hstringtext20                              stringtext20 00000
__Hstringtext21                              stringtext21 00000
__Hstringtext22                              stringtext22 00000
__Hstringtext23                              stringtext23 00000
__Hstringtext24                              stringtext24 00000
__Hstringtext25                              stringtext25 00000
__Hstringtext26                              stringtext26 00000
__Hstringtext27                              stringtext27 00000
__Hstringtext28                              stringtext28 00000
__Hstringtext29                              stringtext29 00000
__Hstringtext3                               stringtext3  00000
__Hstringtext30                              stringtext30 00000
__Hstringtext31                              stringtext31 00000
__Hstringtext32                              stringtext32 00000
__Hstringtext33                              stringtext33 00000
__Hstringtext34                              stringtext34 00000
__Hstringtext35                              stringtext35 00000
__Hstringtext36                              stringtext36 00000
__Hstringtext37                              stringtext37 00000
__Hstringtext38                              stringtext38 00000
__Hstringtext39                              stringtext39 00000
__Hstringtext4                               stringtext4  00000
__Hstringtext40                              stringtext40 00000
__Hstringtext41                              stringtext41 00000
__Hstringtext42                              stringtext42 00000
__Hstringtext43                              stringtext43 00000
__Hstringtext44                              stringtext44 00000
__Hstringtext45                              stringtext45 00000
__Hstringtext46                              stringtext46 00000
__Hstringtext47                              stringtext47 00000
__Hstringtext48                              stringtext48 00000
__Hstringtext49                              stringtext49 00000
__Hstringtext5                               stringtext5  00000
__Hstringtext50                              stringtext50 00000
__Hstringtext51                              stringtext51 00000
__Hstringtext52                              stringtext52 00000
__Hstringtext53                              stringtext53 00000
__Hstringtext54                              stringtext54 00000
__Hstringtext55                              stringtext55 00000
__Hstringtext56                              stringtext56 00000
__Hstringtext57                              stringtext57 00000
__Hstringtext58                              stringtext58 00000
__Hstringtext59                              stringtext59 00000
__Hstringtext6                               stringtext6  00000
__Hstringtext60                              stringtext60 00000
__Hstringtext61                              stringtext61 00000
__Hstringtext62                              stringtext62 00000
__Hstringtext63                              stringtext63 00000
__Hstringtext64                              stringtext64 00000
__Hstringtext65                              stringtext65 00000
__Hstringtext66                              stringtext66 00000
__Hstringtext67                              stringtext67 00000
__Hstringtext68                              stringtext68 00000
__Hstringtext69                              stringtext69 00000
__Hstringtext7                               stringtext7  00000
__Hstringtext70                              stringtext70 00000
__Hstringtext71                              stringtext71 00000
__Hstringtext72                              stringtext72 00000
__Hstringtext73                              stringtext73 00000
__Hstringtext74                              stringtext74 00000
__Hstringtext75                              stringtext75 00000
__Hstringtext76                              stringtext76 00000
__Hstringtext77                              stringtext77 00000
__Hstringtext8                               stringtext8  00000
__Hstringtext9                               stringtext9  00000
__Htext                                      text         00000
__Labs1                                      abs1         00000
__Lbank0                                     bank0        00000
__Lbank1                                     bank1        00000
__Lbank10                                    bank10       00000
__Lbank11                                    bank11       00000
__Lbank12                                    bank12       00000
__Lbank13                                    bank13       00000
__Lbank14                                    bank14       00000
__Lbank15                                    bank15       00000
__Lbank16                                    bank16       00000
__Lbank17                                    bank17       00000
__Lbank18                                    bank18       00000
__Lbank19                                    bank19       00000
__Lbank2                                     bank2        00000
__Lbank20                                    bank20       00000
__Lbank21                                    bank21       00000
__Lbank22                                    bank22       00000
__Lbank23                                    bank23       00000
__Lbank24                                    bank24       00000
__Lbank25                                    bank25       00000
__Lbank26                                    bank26       00000
__Lbank27                                    bank27       00000
__Lbank28                                    bank28       00000
__Lbank29                                    bank29       00000
__Lbank3                                     bank3        00000
__Lbank30                                    bank30       00000
__Lbank31                                    bank31       00000
__Lbank4                                     bank4        00000
__Lbank5                                     bank5        00000
__Lbank6                                     bank6        00000
__Lbank7                                     bank7        00000
__Lbank8                                     bank8        00000
__Lbank9                                     bank9        00000
__Lbigram                                    bigram       00000
__LbssBANK1                                  bssBANK1     00000
__LbssBANK11                                 bssBANK11    00000
__LbssBANK2                                  bssBANK2     00000
__LbssBANK3                                  bssBANK3     00000
__LbssBANK5                                  bssBANK5     00000
__LbssBANK9                                  bssBANK9     00000
__LbssCOMMON                                 bssCOMMON    00000
__Lcinit                                     cinit        00018
__Lclrtext                                   clrtext      00000
__Lcode                                      code         00000
__Lcommon                                    common       00000
__Lconfig                                    config       08007
__LcstackBANK0                               cstackBANK0  00000
__LcstackBANK1                               cstackBANK1  00000
__LcstackCOMMON                              cstackCOMMON 00000
__LdataBANK1                                 dataBANK1    00000
__LdataBANK10                                dataBANK10   00000
__LdataBANK2                                 dataBANK2    00000
__LdataBANK3                                 dataBANK3    00000
__LdataBANK4                                 dataBANK4    00000
__LdataBANK5                                 dataBANK5    00000
__LdataBANK6                                 dataBANK6    00000
__LdataBANK7                                 dataBANK7    00000
__LdataBANK8                                 dataBANK8    00000
__Leeprom_data                               eeprom_data  00000
__Lend_init                                  end_init     00016
__Lfunctab                                   functab      00000
__LidataBANK1                                idataBANK1   00000
__LidataBANK10                               idataBANK10  00000
__LidataBANK2                                idataBANK2   00000
__LidataBANK3                                idataBANK3   00000
__LidataBANK4                                idataBANK4   00000
__LidataBANK5                                idataBANK5   00000
__LidataBANK6                                idataBANK6   00000
__LidataBANK7                                idataBANK7   00000
__LidataBANK8                                idataBANK8   00000
__LidataBIGRAM                               idataBIGRAM  00000
__Lidloc                                     idloc        00000
__Linit                                      init         00016
__Linittext                                  inittext     00000
__Lintentry                                  intentry     00004
__Lmaintext                                  maintext     00000
__Lpowerup                                   powerup      00000
__Lram                                       ram          00000
__Lreset_vec                                 reset_vec    00000
__Lsfr0                                      sfr0         00000
__Lsfr1                                      sfr1         00000
__Lsfr10                                     sfr10        00000
__Lsfr11                                     sfr11        00000
__Lsfr12                                     sfr12        00000
__Lsfr13                                     sfr13        00000
__Lsfr14                                     sfr14        00000
__Lsfr15                                     sfr15        00000
__Lsfr16                                     sfr16        00000
__Lsfr17                                     sfr17        00000
__Lsfr18                                     sfr18        00000
__Lsfr19                                     sfr19        00000
__Lsfr2                                      sfr2         00000
__Lsfr20                                     sfr20        00000
__Lsfr21                                     sfr21        00000
__Lsfr22                                     sfr22        00000
__Lsfr23                                     sfr23        00000
__Lsfr24                                     sfr24        00000
__Lsfr25                                     sfr25        00000
__Lsfr26                                     sfr26        00000
__Lsfr27                                     sfr27        00000
__Lsfr28                                     sfr28        00000
__Lsfr29                                     sfr29        00000
__Lsfr3                                      sfr3         00000
__Lsfr30                                     sfr30        00000
__Lsfr31                                     sfr31        00000
__Lsfr4                                      sfr4         00000
__Lsfr5                                      sfr5         00000
__Lsfr6                                      sfr6         00000
__Lsfr7                                      sfr7         00000
__Lsfr8                                      sfr8         00000
__Lsfr9                                      sfr9         00000
__Lspace_0                                   (abs)        00000
__Lspace_1                                   (abs)        00000
__Lspace_2                                   (abs)        00000
__Lspace_3                                   (abs)        00000
__Lstack                                     stack        00000
__Lstrings                                   strings      00000
__Lstringtext1                               stringtext1  00000
__Lstringtext10                              stringtext10 00000
__Lstringtext11                              stringtext11 00000
__Lstringtext12                              stringtext12 00000
__Lstringtext13                              stringtext13 00000
__Lstringtext14                              stringtext14 00000
__Lstringtext15                              stringtext15 00000
__Lstringtext16                              stringtext16 00000
__Lstringtext17                              stringtext17 00000
__Lstringtext18                              stringtext18 00000
__Lstringtext19                              stringtext19 00000
__Lstringtext2                               stringtext2  00000
__Lstringtext20                              stringtext20 00000
__Lstringtext21                              stringtext21 00000
__Lstringtext22                              stringtext22 00000
__Lstringtext23                              stringtext23 00000
__Lstringtext24                              stringtext24 00000
__Lstringtext25                              stringtext25 00000
__Lstringtext26                              stringtext26 00000
__Lstringtext27                              stringtext27 00000
__Lstringtext28                              stringtext28 00000
__Lstringtext29                              stringtext29 00000
__Lstringtext3                               stringtext3  00000
__Lstringtext30                              stringtext30 00000
__Lstringtext31                              stringtext31 00000
__Lstringtext32                              stringtext32 00000
__Lstringtext33                              stringtext33 00000
__Lstringtext34                              stringtext34 00000
__Lstringtext35                              stringtext35 00000
__Lstringtext36                              stringtext36 00000
__Lstringtext37                              stringtext37 00000
__Lstringtext38                              stringtext38 00000
__Lstringtext39                              stringtext39 00000
__Lstringtext4                               stringtext4  00000
__Lstringtext40                              stringtext40 00000
__Lstringtext41                              stringtext41 00000
__Lstringtext42                              stringtext42 00000
__Lstringtext43                              stringtext43 00000
__Lstringtext44                              stringtext44 00000
__Lstringtext45                              stringtext45 00000
__Lstringtext46                              stringtext46 00000
__Lstringtext47                              stringtext47 00000
__Lstringtext48                              stringtext48 00000
__Lstringtext49                              stringtext49 00000
__Lstringtext5                               stringtext5  00000
__Lstringtext50                              stringtext50 00000
__Lstringtext51                              stringtext51 00000
__Lstringtext52                              stringtext52 00000
__Lstringtext53                              stringtext53 00000
__Lstringtext54                              stringtext54 00000
__Lstringtext55                              stringtext55 00000
__Lstringtext56                              stringtext56 00000
__Lstringtext57                              stringtext57 00000
__Lstringtext58                              stringtext58 00000
__Lstringtext59                              stringtext59 00000
__Lstringtext6                               stringtext6  00000
__Lstringtext60                              stringtext60 00000
__Lstringtext61                              stringtext61 00000
__Lstringtext62                              stringtext62 00000
__Lstringtext63                              stringtext63 00000
__Lstringtext64                              stringtext64 00000
__Lstringtext65                              stringtext65 00000
__Lstringtext66                              stringtext66 00000
__Lstringtext67                              stringtext67 00000
__Lstringtext68                              stringtext68 00000
__Lstringtext69                              stringtext69 00000
__Lstringtext7                               stringtext7  00000
__Lstringtext70                              stringtext70 00000
__Lstringtext71                              stringtext71 00000
__Lstringtext72                              stringtext72 00000
__Lstringtext73                              stringtext73 00000
__Lstringtext74                              stringtext74 00000
__Lstringtext75                              stringtext75 00000
__Lstringtext76                              stringtext76 00000
__Lstringtext77                              stringtext77 00000
__Lstringtext8                               stringtext8  00000
__Lstringtext9                               stringtext9  00000
__Ltext                                      text         00000
__S0                                         (abs)        0800B
__S1                                         (abs)        005C8
__S2                                         (abs)        00000
__S3                                         (abs)        00000
___almod                                     text54       020F1
___almod@counter                             cstackCOMMON 0007A
___almod@dividend                            cstackBANK0  0002F
___almod@divisor                             cstackBANK0  0002B
___almod@sign                                cstackCOMMON 0007B
___bmul                                      text28       034F7
___bmul@multiplicand                         cstackCOMMON 00071
___bmul@multiplier                           cstackCOMMON 00074
___bmul@product                              cstackCOMMON 00073
___int_sp                                    stack        00000
___latbits                                   (abs)        00003
___lmul                                      text53       037CE
___lmul@multiplicand                         cstackCOMMON 00075
___lmul@multiplier                           cstackCOMMON 00071
___lmul@product                              cstackBANK0  00020
___lwdiv                                     text73       028E5
___lwdiv@counter                             cstackCOMMON 00076
___lwdiv@dividend                            cstackCOMMON 00073
___lwdiv@divisor                             cstackCOMMON 00071
___lwdiv@quotient                            cstackCOMMON 00077
___lwmod                                     text72       03772
___lwmod@counter                             cstackCOMMON 0007A
___lwmod@dividend                            cstackBANK0  0002D
___lwmod@divisor                             cstackBANK0  0002B
___sp                                        stack        00000
___wmul                                      text42       035F3
___wmul@multiplicand                         cstackCOMMON 00073
___wmul@multiplier                           cstackCOMMON 00071
___wmul@product                              cstackCOMMON 00075
__end_of_INTERRUPT_InterruptManager          intentry     00016
__end_of_OSCILLATOR_Initialize               text97       03403
__end_of_PIN_MANAGER_Initialize              text96       02E29
__end_of_PWM1_Initialize                     text95       0342D
__end_of_PWM1_LoadDutyValue                  text101      03569
__end_of_PWM2_Initialize                     text94       03438
__end_of_PWM2_LoadDutyValue                  text100      0357F
__end_of_PWM5_Initialize                     text93       0345A
__end_of_PWM5_LoadDutyValue                  text99       03595
__end_of_PWM6_Initialize                     text92       03466
__end_of_PWM6_LoadDutyValue                  text98       035AB
__end_of_SPI1_Exchange8bit                   text81       033F0
__end_of_SPI1_Exchange8bitBuffer             text80       02D2E
__end_of_SPI1_Initialize                     text91       033DF
__end_of_SYSTEM_Initialize                   text82       036DD
__end_of_TMR0_CallBack                       text104      03422
__end_of_TMR0_DefaultInterruptHandler        text105      00801
__end_of_TMR0_ISR                            text103      0348B
__end_of_TMR0_Initialize                     text88       03680
__end_of_TMR0_Read16bitTimer                 text74       03662
__end_of_TMR0_SetInterruptHandler            text90       033C5
__end_of_TMR0_StartTimer                     text89       033AA
__end_of_TMR2_Initialize                     text86       0340D
__end_of_TMR2_StartTimer                     text87       033AD
__end_of_TMR4_Initialize                     text84       03443
__end_of_TMR4_StartTimer                     text85       033B0
__end_of_WDT_Initialize                      text83       033BA
__end_of___almod                             text54       0215F
__end_of___bmul                              text28       03508
__end_of___lmul                              text53       03800
__end_of___lwdiv                             text73       02919
__end_of___lwmod                             text72       0379F
__end_of___wmul                              text42       0360E
__end_of__initialization                     cinit        000E1
__end_of_displayCharReverse                  text69       037CE
__end_of_displayL1_Initialize                text77       0353F
__end_of_displayL1_SetSegChar                text68       02A74
__end_of_displayL1_SetUserLed                text60       0351A
__end_of_displayL1_Update                    text79       034E6
__end_of_displayL2_ClrUserLeds               text37       034A7
__end_of_displayL2_EraseSegDisplay           text39       034D5
__end_of_displayL2_ForceUpdate               text71       033CB
__end_of_displayL2_Initialize                text76       03748
__end_of_displayL2_PutChar                   text67       02D80
__end_of_displayL2_PutStr                    text66       03772
__end_of_displayL2_SetUserLeds               text59       036BC
__end_of_dpowers                             stringtext2  0280A
__end_of_flashy_Init                         text7        007FA
__end_of_flashy_Main                         text18       01000
__end_of_flashy_display_option               text61       01A5F
__end_of_gamma_table_256x1k                  stringtext1  01A00
__end_of_isdigit                             text41       03499
__end_of_led_Parody                          text57       020F1
__end_of_led_circle                          text56       033F9
__end_of_led_curtain                         text55       02AB5
__end_of_led_rand                            text51       02C96
__end_of_led_roundabout                      text50       02AF6
__end_of_let_alternate                       text49       03553
__end_of_locked_Init                         text5        03000
__end_of_locked_Main                         text16       01E09
__end_of_locked_clear                        text35       02B38
__end_of_locked_get_lock_leds                text34       03722
__end_of_locked_get_unlock_leds              text33       00819
__end_of_locked_lock_leds                    text32       035F3
__end_of_locked_unlock_leds                  text31       0352C
__end_of_main                                maintext     00764
__end_of_marquee                             text63       02249
__end_of_marquee_speedy                      text62       021D2
__end_of_matrix_Init                         text3        023E5
__end_of_matrix_Main                         text14       01800
__end_of_matrix_display_option               text29       02488
__end_of_matrix_secret_check                 text27       02543
__end_of_memset                              text78       035D9
__end_of_menu_Init                           text6        02F9D
__end_of_menu_Main                           text17       02000
__end_of_menu_clear                          text25       02C4E
__end_of_menu_display_option                 text26       02F3B
__end_of_menu_run_option                     text24       02CE0
__end_of_nullifyBadge_buttonsGet             text48       028B3
__end_of_nullifyBadge_irGet                  text47       033BF
__end_of_nullifyBadge_irTxClr                text46       033B3
__end_of_nullifyBadge_irTxRegister           text45       034B6
__end_of_nullifyBadge_irTxRelease            text44       0344E
__end_of_nullifyBadge_irTxSet                text43       033B6
__end_of_nullifyBadge_platformInit           text75       02E7E
__end_of_nullifyBadge_segDisplayErase        text38       033D7
__end_of_nullifyBadge_segDisplayForceUpdate  text70       033D1
__end_of_nullifyBadge_segDisplayPutStr       text65       03417
__end_of_nullifyBadge_segDisplayRegister     text10       033E7
__end_of_nullifyBadge_userLedsClr            text36       00800
__end_of_nullifyBadge_userLedsRegister       text9        034C5
__end_of_nullifyBadge_userLedsSet            text58       034F7
__end_of_rand                                text52       02B7B
__end_of_schedulerExecute                    text12       02347
__end_of_scheduler_Init                      text11       03629
__end_of_scheduler_TaskAdd                   text2        022C3
__end_of_scheduler_TaskInit                  text1        029F9
__end_of_scheduler_TaskRun                   text13       036FE
__end_of_secret_Init                         text4        02ED9
__end_of_secret_Main                         text15       02800
__end_of_secret_check                        text23       010E3
__end_of_secret_clear                        text22       028E5
__end_of_slot_Finished_Animation             text21       01028
__end_of_slot_Init                           text8        0208C
__end_of_slot_Main                           text19       00661
__end_of_slot_Running_Animation              text20       02BC1
__end_of_slot_Setup                          text30       02DD4
__end_of_sprintf                             text40       01C2C
__end_of_strlen                              text64       0369E
__initialization                             cinit        00018
__pbssBANK1                                  bssBANK1     000A0
__pbssBANK11                                 bssBANK11    005A0
__pbssBANK2                                  bssBANK2     00120
__pbssBANK3                                  bssBANK3     001A0
__pbssBANK5                                  bssBANK5     002A0
__pbssBANK9                                  bssBANK9     004A0
__pbssCOMMON                                 bssCOMMON    0007C
__pcstackBANK0                               cstackBANK0  00020
__pcstackBANK1                               cstackBANK1  000DD
__pcstackCOMMON                              cstackCOMMON 00070
__pdataBANK1                                 dataBANK1    000C7
__pdataBANK10                                dataBANK10   00520
__pdataBANK2                                 dataBANK2    00167
__pdataBANK3                                 dataBANK3    001D1
__pdataBANK4                                 dataBANK4    00220
__pdataBANK5                                 dataBANK5    002CA
__pdataBANK6                                 dataBANK6    00320
__pdataBANK7                                 dataBANK7    003A0
__pdataBANK8                                 dataBANK8    00420
__pdataBIGRAM                                (abs)        026F0
__pidataBANK1                                idataBANK1   035AB
__pidataBANK10                               idataBANK10  029F9
__pidataBANK2                                idataBANK2   00002
__pidataBANK3                                idataBANK3   03629
__pidataBANK4                                idataBANK4   02BC1
__pidataBANK5                                idataBANK5   02002
__pidataBANK6                                idataBANK6   02919
__pidataBANK7                                idataBANK7   02988
__pidataBANK8                                idataBANK8   02950
__pidataBIGRAM                               idataBIGRAM  02543
__pintentry                                  intentry     00004
__pmaintext                                  maintext     00661
__pstringtext1                               stringtext1  01800
__pstringtext10                              stringtext10 03919
__pstringtext11                              stringtext11 03937
__pstringtext12                              stringtext12 03954
__pstringtext13                              stringtext13 03971
__pstringtext14                              stringtext14 0398D
__pstringtext15                              stringtext15 039A8
__pstringtext16                              stringtext16 039C3
__pstringtext17                              stringtext17 039DD
__pstringtext18                              stringtext18 039F4
__pstringtext19                              stringtext19 03A0A
__pstringtext2                               stringtext2  02800
__pstringtext20                              stringtext20 03A1F
__pstringtext21                              stringtext21 03A32
__pstringtext22                              stringtext22 03A45
__pstringtext23                              stringtext23 03A57
__pstringtext24                              stringtext24 03A68
__pstringtext25                              stringtext25 03A79
__pstringtext26                              stringtext26 03A89
__pstringtext27                              stringtext27 03A98
__pstringtext28                              stringtext28 03AA5
__pstringtext29                              stringtext29 03AB2
__pstringtext3                               stringtext3  03800
__pstringtext30                              stringtext30 03ABF
__pstringtext31                              stringtext31 03ACB
__pstringtext32                              stringtext32 03AD7
__pstringtext33                              stringtext33 03AE2
__pstringtext34                              stringtext34 03AED
__pstringtext35                              stringtext35 03AF7
__pstringtext36                              stringtext36 03B01
__pstringtext37                              stringtext37 03B0A
__pstringtext38                              stringtext38 03B13
__pstringtext39                              stringtext39 03B1C
__pstringtext4                               stringtext4  0382F
__pstringtext40                              stringtext40 03B25
__pstringtext41                              stringtext41 03B2E
__pstringtext42                              stringtext42 03B36
__pstringtext43                              stringtext43 03B3E
__pstringtext44                              stringtext44 03B46
__pstringtext45                              stringtext45 03B4E
__pstringtext46                              stringtext46 03B56
__pstringtext47                              stringtext47 03B5E
__pstringtext48                              stringtext48 03B66
__pstringtext49                              stringtext49 03B6E
__pstringtext5                               stringtext5  0385D
__pstringtext50                              stringtext50 03B75
__pstringtext51                              stringtext51 03B7C
__pstringtext52                              stringtext52 03B83
__pstringtext53                              stringtext53 03B8A
__pstringtext54                              stringtext54 03B91
__pstringtext55                              stringtext55 03B97
__pstringtext56                              stringtext56 03B9D
__pstringtext57                              stringtext57 03BA3
__pstringtext58                              stringtext58 03BA9
__pstringtext59                              stringtext59 03BAE
__pstringtext6                               stringtext6  03888
__pstringtext60                              stringtext60 03BB3
__pstringtext61                              stringtext61 03BB8
__pstringtext62                              stringtext62 03BBD
__pstringtext63                              stringtext63 03BC2
__pstringtext64                              stringtext64 03BC7
__pstringtext65                              stringtext65 03BCC
__pstringtext66                              stringtext66 03BD1
__pstringtext67                              stringtext67 03BD6
__pstringtext68                              stringtext68 03BDB
__pstringtext69                              stringtext69 03BE0
__pstringtext7                               stringtext7  038B0
__pstringtext70                              stringtext70 03BE5
__pstringtext71                              stringtext71 03BEA
__pstringtext72                              stringtext72 03BEF
__pstringtext73                              stringtext73 03BF4
__pstringtext74                              stringtext74 03BF9
__pstringtext75                              stringtext75 03BFE
__pstringtext76                              stringtext76 03C02
__pstringtext77                              stringtext77 00000
__pstringtext8                               stringtext8  038D4
__pstringtext9                               stringtext9  038F7
__pswtext1                                   swtext1      03000
__ptext1                                     text1        029C0
__ptext10                                    text10       033DF
__ptext100                                   text100      03569
__ptext101                                   text101      03553
__ptext103                                   text103      0347E
__ptext104                                   text104      03417
__ptext105                                   text105      00800
__ptext11                                    text11       0360E
__ptext12                                    text12       022C3
__ptext13                                    text13       036DD
__ptext14                                    text14       010E3
__ptext15                                    text15       02643
__ptext16                                    text16       01C2C
__ptext17                                    text17       01E09
__ptext18                                    text18       00819
__ptext19                                    text19       000E5
__ptext2                                     text2        02249
__ptext20                                    text20       02B7B
__ptext21                                    text21       01001
__ptext22                                    text22       028B3
__ptext23                                    text23       01028
__ptext24                                    text24       02C96
__ptext25                                    text25       02C07
__ptext26                                    text26       02ED9
__ptext27                                    text27       02488
__ptext28                                    text28       034F7
__ptext29                                    text29       023E5
__ptext3                                     text3        02347
__ptext30                                    text30       02D80
__ptext31                                    text31       0351A
__ptext32                                    text32       035D9
__ptext33                                    text33       00801
__ptext34                                    text34       036FE
__ptext35                                    text35       02AF6
__ptext36                                    text36       007FA
__ptext37                                    text37       03499
__ptext38                                    text38       033D1
__ptext39                                    text39       034C5
__ptext4                                     text4        02E7E
__ptext40                                    text40       01A5F
__ptext41                                    text41       0348B
__ptext42                                    text42       035F3
__ptext43                                    text43       033B3
__ptext44                                    text44       03443
__ptext45                                    text45       034A7
__ptext46                                    text46       033B0
__ptext47                                    text47       033BA
__ptext48                                    text48       02882
__ptext49                                    text49       0353F
__ptext5                                     text5        02F9D
__ptext50                                    text50       02AB5
__ptext51                                    text51       02C4E
__ptext52                                    text52       02B38
__ptext53                                    text53       037CE
__ptext54                                    text54       020F1
__ptext55                                    text55       02A74
__ptext56                                    text56       033F0
__ptext57                                    text57       0208C
__ptext58                                    text58       034E6
__ptext59                                    text59       0369E
__ptext6                                     text6        02F3B
__ptext60                                    text60       03508
__ptext61                                    text61       01A00
__ptext62                                    text62       0215F
__ptext63                                    text63       021D2
__ptext64                                    text64       03680
__ptext65                                    text65       0340D
__ptext66                                    text66       03748
__ptext67                                    text67       02D2E
__ptext68                                    text68       02A33
__ptext69                                    text69       0379F
__ptext7                                     text7        00764
__ptext70                                    text70       033CB
__ptext71                                    text71       033C5
__ptext72                                    text72       03772
__ptext73                                    text73       028E5
__ptext74                                    text74       03645
__ptext75                                    text75       02E29
__ptext76                                    text76       03722
__ptext77                                    text77       0352C
__ptext78                                    text78       035C1
__ptext79                                    text79       034D5
__ptext8                                     text8        02028
__ptext80                                    text80       02CE0
__ptext81                                    text81       033E7
__ptext82                                    text82       036BC
__ptext83                                    text83       033B6
__ptext84                                    text84       03438
__ptext85                                    text85       033AD
__ptext86                                    text86       03403
__ptext87                                    text87       033AA
__ptext88                                    text88       03662
__ptext89                                    text89       033A7
__ptext9                                     text9        034B6
__ptext90                                    text90       033BF
__ptext91                                    text91       033D7
__ptext92                                    text92       0345A
__ptext93                                    text93       0344E
__ptext94                                    text94       0342D
__ptext95                                    text95       03422
__ptext96                                    text96       02DD4
__ptext97                                    text97       033F9
__ptext98                                    text98       03595
__ptext99                                    text99       0357F
__size_of_INTERRUPT_InterruptManager         (abs)        00000
__size_of_OSCILLATOR_Initialize              (abs)        00000
__size_of_PIN_MANAGER_Initialize             (abs)        00000
__size_of_PWM1_Initialize                    (abs)        00000
__size_of_PWM1_LoadDutyValue                 (abs)        00000
__size_of_PWM2_Initialize                    (abs)        00000
__size_of_PWM2_LoadDutyValue                 (abs)        00000
__size_of_PWM5_Initialize                    (abs)        00000
__size_of_PWM5_LoadDutyValue                 (abs)        00000
__size_of_PWM6_Initialize                    (abs)        00000
__size_of_PWM6_LoadDutyValue                 (abs)        00000
__size_of_SPI1_Exchange8bit                  (abs)        00000
__size_of_SPI1_Exchange8bitBuffer            (abs)        00000
__size_of_SPI1_Initialize                    (abs)        00000
__size_of_SYSTEM_Initialize                  (abs)        00000
__size_of_TMR0_CallBack                      (abs)        00000
__size_of_TMR0_DefaultInterruptHandler       (abs)        00000
__size_of_TMR0_ISR                           (abs)        00000
__size_of_TMR0_Initialize                    (abs)        00000
__size_of_TMR0_Read16bitTimer                (abs)        00000
__size_of_TMR0_SetInterruptHandler           (abs)        00000
__size_of_TMR0_StartTimer                    (abs)        00000
__size_of_TMR2_Initialize                    (abs)        00000
__size_of_TMR2_StartTimer                    (abs)        00000
__size_of_TMR4_Initialize                    (abs)        00000
__size_of_TMR4_StartTimer                    (abs)        00000
__size_of_WDT_Initialize                     (abs)        00000
__size_of___almod                            (abs)        00000
__size_of___bmul                             (abs)        00000
__size_of___lmul                             (abs)        00000
__size_of___lwdiv                            (abs)        00000
__size_of___lwmod                            (abs)        00000
__size_of___wmul                             (abs)        00000
__size_of_displayCharReverse                 (abs)        00000
__size_of_displayL1_Initialize               (abs)        00000
__size_of_displayL1_SetSegChar               (abs)        00000
__size_of_displayL1_SetUserLed               (abs)        00000
__size_of_displayL1_Update                   (abs)        00000
__size_of_displayL2_ClrUserLeds              (abs)        00000
__size_of_displayL2_EraseSegDisplay          (abs)        00000
__size_of_displayL2_ForceUpdate              (abs)        00000
__size_of_displayL2_Initialize               (abs)        00000
__size_of_displayL2_PutChar                  (abs)        00000
__size_of_displayL2_PutStr                   (abs)        00000
__size_of_displayL2_SetUserLeds              (abs)        00000
__size_of_flashy_Init                        (abs)        00000
__size_of_flashy_Main                        (abs)        00000
__size_of_flashy_display_option              (abs)        00000
__size_of_isdigit                            (abs)        00000
__size_of_led_Parody                         (abs)        00000
__size_of_led_circle                         (abs)        00000
__size_of_led_curtain                        (abs)        00000
__size_of_led_rand                           (abs)        00000
__size_of_led_roundabout                     (abs)        00000
__size_of_let_alternate                      (abs)        00000
__size_of_locked_Init                        (abs)        00000
__size_of_locked_Main                        (abs)        00000
__size_of_locked_clear                       (abs)        00000
__size_of_locked_get_lock_leds               (abs)        00000
__size_of_locked_get_unlock_leds             (abs)        00000
__size_of_locked_lock_leds                   (abs)        00000
__size_of_locked_unlock_leds                 (abs)        00000
__size_of_main                               (abs)        00000
__size_of_marquee                            (abs)        00000
__size_of_marquee_speedy                     (abs)        00000
__size_of_matrix_Init                        (abs)        00000
__size_of_matrix_Main                        (abs)        00000
__size_of_matrix_display_option              (abs)        00000
__size_of_matrix_secret_check                (abs)        00000
__size_of_memset                             (abs)        00000
__size_of_menu_Init                          (abs)        00000
__size_of_menu_Main                          (abs)        00000
__size_of_menu_clear                         (abs)        00000
__size_of_menu_display_option                (abs)        00000
__size_of_menu_run_option                    (abs)        00000
__size_of_nullifyBadge_buttonsGet            (abs)        00000
__size_of_nullifyBadge_irGet                 (abs)        00000
__size_of_nullifyBadge_irTxClr               (abs)        00000
__size_of_nullifyBadge_irTxRegister          (abs)        00000
__size_of_nullifyBadge_irTxRelease           (abs)        00000
__size_of_nullifyBadge_irTxSet               (abs)        00000
__size_of_nullifyBadge_platformInit          (abs)        00000
__size_of_nullifyBadge_segDisplayErase       (abs)        00000
__size_of_nullifyBadge_segDisplayForceUpdate (abs)        00000
__size_of_nullifyBadge_segDisplayPutStr      (abs)        00000
__size_of_nullifyBadge_segDisplayRegister    (abs)        00000
__size_of_nullifyBadge_userLedsClr           (abs)        00000
__size_of_nullifyBadge_userLedsRegister      (abs)        00000
__size_of_nullifyBadge_userLedsSet           (abs)        00000
__size_of_rand                               (abs)        00000
__size_of_schedulerExecute                   (abs)        00000
__size_of_scheduler_Init                     (abs)        00000
__size_of_scheduler_TaskAdd                  (abs)        00000
__size_of_scheduler_TaskInit                 (abs)        00000
__size_of_scheduler_TaskRun                  (abs)        00000
__size_of_secret_Init                        (abs)        00000
__size_of_secret_Main                        (abs)        00000
__size_of_secret_check                       (abs)        00000
__size_of_secret_clear                       (abs)        00000
__size_of_slot_Finished_Animation            (abs)        00000
__size_of_slot_Init                          (abs)        00000
__size_of_slot_Main                          (abs)        00000
__size_of_slot_Running_Animation             (abs)        00000
__size_of_slot_Setup                         (abs)        00000
__size_of_sprintf                            (abs)        00000
__size_of_strlen                             (abs)        00000
_asciiCharTableLookup                        (abs)        026F0
_badge_inst                                  bssBANK3     001B2
_badge_locked                                bssBANK1     000C4
_currentTask                                 bssBANK1     000BA
_curtain_leds                                dataBANK8    0043C
_curtain_leds_inverse                        dataBANK8    00420
_deaths                                      bssBANK1     000AA
_displayCharReverse                          text69       0379F
_displayL1_Initialize                        text77       0352C
_displayL1_SetSegChar                        text68       02A33
_displayL1_SetUserLed                        text60       03508
_displayL1_Update                            text79       034D5
_displayL2_ClrUserLeds                       text37       03499
_displayL2_EraseSegDisplay                   text39       034C5
_displayL2_ForceUpdate                       text71       033C5
_displayL2_Initialize                        text76       03722
_displayL2_PutChar                           text67       02D2E
_displayL2_PutStr                            text66       03748
_displayL2_SetUserLeds                       text59       0369E
_dpowers                                     stringtext2  02800
_flashy_Exit                                 (abs)        00000
_flashy_Init                                 text7        00764
_flashy_Main                                 text18       00819
_flashy_TaskData                             bssBANK9     004BF
_flashy_display_option                       text61       01A00
_flashy_leds_idx                             bssBANK1     000B2
_flashy_leds_state_track                     bssBANK1     000B0
_flashy_option                               dataBANK10   00520
_flashy_option_idx                           bssBANK1     000A8
_flashy_option_size                          bssBANK1     000A6
_flashy_scroll_rate                          bssBANK1     000AC
_flashy_sparkle_rate                         bssBANK1     000AE
_flashy_task                                 bssBANK2     0015A
_gamma_table_256x1k                          stringtext1  01800
_isdigit                                     text41       0348B
_isdigit$3610                                cstackCOMMON 00071
_led_Parody                                  text57       0208C
_led_circle                                  text56       033F0
_led_curtain                                 text55       02A74
_led_rand                                    text51       02C4E
_led_roundabout                              text50       02AB5
_let_alternate                               text49       0353F
_locked_Exit                                 (abs)        00000
_locked_Init                                 text5        02F9D
_locked_Main                                 text16       01C2C
_locked_TaskData                             bssBANK5     002AE
_locked_clear                                text35       02AF6
_locked_get_lock_leds                        text34       036FE
_locked_get_unlock_leds                      text33       00801
_locked_leds                                 bssBANK1     000A2
_locked_lock_base_leds                       dataBANK1    000D9
_locked_lock_leds                            text32       035D9
_locked_locking_leds                         dataBANK1    000C7
_locked_locking_leds_idx                     bssBANK1     000A4
_locked_task                                 bssBANK2     00133
_locked_unlock_leds                          text31       0351A
_main                                        maintext     00661
_marquee                                     text63       021D2
_marquee_speedy                              text62       0215F
_matrix_Exit                                 (abs)        00000
_matrix_Init                                 text3        02347
_matrix_Main                                 text14       010E3
_matrix_TaskData                             bssBANK9     004A0
_matrix_display_option                       text29       023E5
_matrix_leds_idx                             bssBANK1     000A0
_matrix_option                               dataBANK5    002CA
_matrix_secret_check                         text27       02488
_matrix_secret_inputs                        dataBANK4    00234
_matrix_task                                 bssBANK3     001C4
_memset                                      text78       035C1
_menu_Exit                                   (abs)        00000
_menu_Init                                   text6        02F3B
_menu_Main                                   text17       01E09
_menu_TaskData                               bssBANK5     002BC
_menu_clear                                  text25       02C07
_menu_display_option                         text26       02ED9
_menu_option                                 dataBANK4    0022A
_menu_option_idx                             bssBANK1     000B6
_menu_option_size                            bssBANK1     000B4
_menu_options_leds                           dataBANK4    00220
_menu_run_option                             text24       02C96
_menu_task                                   bssBANK2     0014D
_nullifyBadge_buttonsGet                     text48       02882
_nullifyBadge_irGet                          text47       033BA
_nullifyBadge_irTxClr                        text46       033B0
_nullifyBadge_irTxRegister                   text45       034A7
_nullifyBadge_irTxRelease                    text44       03443
_nullifyBadge_irTxSet                        text43       033B3
_nullifyBadge_platformInit                   text75       02E29
_nullifyBadge_segDisplayErase                text38       033D1
_nullifyBadge_segDisplayForceUpdate          text70       033CB
_nullifyBadge_segDisplayPutStr               text65       0340D
_nullifyBadge_segDisplayRegister             text10       033DF
_nullifyBadge_userLedsClr                    text36       007FA
_nullifyBadge_userLedsRegister               text9        034B6
_nullifyBadge_userLedsSet                    text58       034E6
_oddeven                                     bssBANK1     000B8
_rand                                        text52       02B38
_randx                                       dataBANK1    000D3
_roundabout_leds                             dataBANK7    003BC
_roundabout_leds_inverse                     dataBANK7    003A0
_schedulerExecute                            text12       022C3
_schedulerInst                               bssBANK3     001A0
_scheduler_Init                              text11       0360E
_scheduler_TaskAdd                           text2        02249
_scheduler_TaskInit                          text1        029C0
_scheduler_TaskRun                           text13       036DD
_secret_Exit                                 (abs)        00000
_secret_Init                                 text4        02E7E
_secret_Main                                 text15       02643
_secret_TaskData                             bssBANK5     002A0
_secret_check                                text23       01028
_secret_clear                                text22       028B3
_secret_inputs                               dataBANK4    0024D
_secret_task                                 bssBANK2     00126
_secret_value                                bssBANK1     000C5
_slot_Exit                                   (abs)        00000
_slot_Finished_Animation                     text21       01001
_slot_Init                                   text8        02028
_slot_Main                                   text19       000E5
_slot_Running_Animation                      text20       02B7B
_slot_Setup                                  text30       02D80
_slot_TaskData                               bssBANK11    005A0
_slot_task                                   bssBANK2     00140
_slot_taskData                               bssBANK1     000BC
_sprintf                                     text40       01A5F
_strlen                                      text64       03680
_timer0ReloadVal16bit                        bssBANK1     000C0
btemp                                        (abs)        0007E
clear_ram0                                   clrtext      03466
displayCharReverse@cVal                      cstackCOMMON 00071
displayCharReverse@k                         cstackCOMMON 0007B
displayCharReverse@retValLower               cstackCOMMON 00078
displayCharReverse@retValUpper               cstackCOMMON 00079
displayCharReverse@retValUpperRev            cstackCOMMON 0007A
displayL1_Initialize@display                 cstackCOMMON 0007B
displayL1_SetSegChar@c                       cstackBANK0  00020
displayL1_SetSegChar@charData                cstackBANK0  00028
displayL1_SetSegChar@charPos                 cstackBANK0  00021
displayL1_SetSegChar@dispDataVectBaseIdx     cstackBANK0  00026
displayL1_SetSegChar@display                 cstackBANK0  00027
displayL1_SetUserLed@display                 cstackCOMMON 00074
displayL1_SetUserLed@userLedVect             cstackCOMMON 00071
displayL1_Update@display                     cstackBANK0  0002A
displayL1_Update@tmpRxBuf                    cstackBANK0  00020
displayL2_ClrUserLeds@display                cstackCOMMON 0007B
displayL2_EraseSegDisplay@display            cstackBANK0  00037
displayL2_ForceUpdate@display                cstackCOMMON 0007B
displayL2_Initialize@display                 cstackBANK0  0002B
displayL2_PutChar@c                          cstackBANK0  0002A
displayL2_PutChar@display                    cstackBANK0  0002F
displayL2_PutChar@k                          cstackBANK0  0002E
displayL2_PutStr@display                     cstackBANK0  00035
displayL2_PutStr@k                           cstackBANK0  00036
displayL2_PutStr@str                         cstackBANK0  00030
displayL2_SetUserLeds@display                cstackCOMMON 0007B
displayL2_SetUserLeds@userLedData            cstackBANK0  0002B
end_of_initialization                        cinit        000E1
flashy_Init@data                             cstackBANK0  0003B
flashy_Init@taskData                         cstackBANK0  00039
flashy_Main@buttonPressed                    cstackBANK0  0005C
flashy_Main@data                             cstackBANK0  0005E
flashy_Main@hit_counter                      cstackBANK0  00056
flashy_Main@taskData                         cstackBANK0  00052
flashy_display_option@data                   cstackBANK0  0004C
init_ram                                     inittext     03472
int$flags                                    (abs)        0007E
intlevel0                                    functab      00000
intlevel1                                    functab      00000
intlevel2                                    functab      00000
intlevel3                                    functab      00000
intlevel4                                    functab      00000
intlevel5                                    functab      00000
isdigit@c                                    cstackCOMMON 00072
led_Parody@count                             cstackBANK0  00030
led_Parody@leds                              cstackBANK0  00034
led_Parody@size                              cstackBANK0  00036
led_circle@count                             cstackBANK0  00030
led_curtain@counter                          cstackBANK0  00030
led_curtain@leds                             cstackBANK0  00034
led_curtain@size                             cstackBANK0  00036
led_rand@spark                               cstackBANK0  0003B
led_roundabout@counter                       cstackBANK0  00030
led_roundabout@leds                          cstackBANK0  00034
led_roundabout@size                          cstackBANK0  00036
let_alternate@count                          cstackBANK0  00030
locked_Init@data                             cstackBANK0  0003B
locked_Init@taskData                         cstackBANK0  00039
locked_Main@buttonPressed                    cstackBANK0  00056
locked_Main@data                             cstackBANK0  00057
locked_Main@taskData                         cstackBANK0  00052
locked_clear@data                            cstackBANK0  00039
locked_get_lock_leds@leds                    cstackCOMMON 00077
locked_get_lock_leds@size                    cstackCOMMON 00075
locked_get_unlock_leds@leds                  cstackCOMMON 00073
locked_lock_leds@size                        cstackCOMMON 00073
marquee@F14099                               dataBANK3    001E3
marquee@count                                cstackBANK0  0003C
marquee@display_string                       cstackBANK0  0003F
marquee@i                                    cstackBANK0  00046
marquee@j                                    cstackBANK0  0004A
marquee@multiplier                           cstackBANK0  00044
marquee@string                               cstackBANK0  0003A
marquee@string_length                        cstackBANK0  00048
marquee_speedy@F14090                        dataBANK3    001E8
marquee_speedy@count                         cstackBANK0  0003C
marquee_speedy@display_string                cstackBANK0  00041
marquee_speedy@i                             cstackBANK0  00046
marquee_speedy@j                             cstackBANK0  0004A
marquee_speedy@multiplier                    cstackBANK0  0003E
marquee_speedy@string                        cstackBANK0  0003A
marquee_speedy@string_length                 cstackBANK0  00048
matrix_Init@data                             cstackBANK0  0003D
matrix_Init@taskData                         cstackBANK0  00039
matrix_Main@buttonPressed                    cstackBANK0  00059
matrix_Main@data                             cstackBANK0  0005B
matrix_Main@holdvalue                        cstackBANK0  0005A
matrix_Main@matrix_found                     cstackBANK0  00058
matrix_Main@taskData                         cstackBANK0  00052
matrix_display_option@data                   cstackBANK0  0004C
matrix_secret_check@buttonPressed            cstackCOMMON 00079
matrix_secret_check@currents_size            cstackBANK0  00025
matrix_secret_check@data                     cstackCOMMON 00077
matrix_secret_check@i                        cstackBANK0  00028
matrix_secret_check@inputs                   cstackBANK0  00027
matrix_secret_check@size                     cstackBANK0  00023
memset@c                                     cstackCOMMON 00073
memset@n                                     cstackCOMMON 00075
memset@p                                     cstackCOMMON 00077
memset@p1                                    cstackCOMMON 00071
menu_Init@data                               cstackBANK0  0003B
menu_Init@taskData                           cstackBANK0  00039
menu_Main@buttonPressed                      cstackBANK0  00056
menu_Main@data                               cstackBANK0  00057
menu_Main@taskData                           cstackBANK0  00052
menu_clear@data                              cstackBANK0  00039
menu_display_option@data                     cstackBANK0  0004C
menu_display_option@led                      cstackBANK0  00050
menu_display_option@size                     cstackBANK0  0004E
menu_run_option@data                         cstackBANK0  0003B
nullifyBadge_buttonsGet@retVal               cstackCOMMON 00073
nullifyBadge_irTxRegister@badge              cstackCOMMON 00071
nullifyBadge_irTxRelease@badge               cstackCOMMON 00072
nullifyBadge_platformInit@badge              cstackBANK0  0002C
nullifyBadge_segDisplayErase@badge           cstackBANK0  00038
nullifyBadge_segDisplayForceUpdate@badge     cstackBANK0  0002B
nullifyBadge_segDisplayPutStr@badge          cstackBANK0  00039
nullifyBadge_segDisplayPutStr@str            cstackBANK0  00037
nullifyBadge_segDisplayRegister@badge        cstackCOMMON 00071
nullifyBadge_userLedsClr@badge               cstackBANK0  0002B
nullifyBadge_userLedsRegister@badge          cstackCOMMON 00071
nullifyBadge_userLedsSet@badge               cstackBANK0  0002F
nullifyBadge_userLedsSet@userLedData         cstackBANK0  0002D
reset_vec                                    reset_vec    00000
schedulerExecute@currentSystemTick           cstackBANK1  000DD
schedulerExecute@k                           cstackBANK1  000E4
schedulerExecute@scheduler                   cstackBANK1  000E3
schedulerExecute@taskLastSystemTick          cstackBANK1  000DF
schedulerExecute@tickDelta                   cstackBANK1  000E1
scheduler_Init@k                             cstackCOMMON 00073
scheduler_Init@scheduler                     cstackCOMMON 00072
scheduler_TaskAdd@k                          cstackBANK0  00047
scheduler_TaskAdd@scheduler                  cstackBANK0  00046
scheduler_TaskAdd@task                       cstackBANK0  0003F
scheduler_TaskInit@task                      cstackCOMMON 00071
scheduler_TaskRun@task                       cstackBANK0  00067
secret_Init@data                             cstackBANK0  0003B
secret_Init@taskData                         cstackBANK0  00039
secret_Main@buttonPressed                    cstackBANK0  00057
secret_Main@data                             cstackBANK0  00058
secret_Main@secret_found                     cstackBANK0  00056
secret_Main@taskData                         cstackBANK0  00052
secret_check@buttonPressed                   cstackCOMMON 00079
secret_check@currents_size                   cstackBANK0  00025
secret_check@data                            cstackCOMMON 00077
secret_check@i                               cstackBANK0  00028
secret_check@inputs                          cstackBANK0  00027
secret_check@size                            cstackBANK0  00023
secret_clear@data                            cstackCOMMON 00071
slot_Finished_Animation@data                 cstackBANK0  00041
slot_Finished_Animation@taskData             cstackBANK0  0003D
slot_Init@data                               cstackBANK0  0003B
slot_Init@taskData                           cstackBANK0  00039
slot_Main@buttonPressed                      cstackBANK0  00064
slot_Main@data                               cstackBANK0  00065
slot_Main@taskData                           cstackBANK0  00052
slot_Running_Animation@data                  cstackBANK0  00036
slot_Running_Animation@taskData              cstackBANK0  00032
slot_Setup@data                              cstackBANK0  00034
slot_Setup@taskData                          cstackBANK0  0002F
sprintf@ap                                   cstackBANK0  00043
sprintf@c                                    cstackBANK0  0004A
sprintf@cp                                   cstackBANK0  00041
sprintf@f                                    cstackBANK0  00031
sprintf@flag                                 cstackBANK0  00040
sprintf@len                                  cstackBANK0  00046
sprintf@prec                                 cstackBANK0  0003F
sprintf@sp                                   cstackBANK0  0002F
sprintf@val                                  cstackBANK0  00044
sprintf@width                                cstackBANK0  00048
stackhi                                      (abs)        026EF
stacklo                                      (abs)        02398
start                                        init         00016
start_initialization                         cinit        00018
strlen@cp                                    cstackCOMMON 00075
strlen@s                                     cstackCOMMON 00071
wtemp0                                       (abs)        0007E


FUNCTION INFORMATION:

 *************** function _main *****************
 Defined at:
		line 225 in file "main.c"
 Parameters:    Size  Location     Type
		None
 Auto vars:     Size  Location     Type
		None
 Return value:  Size  Location     Type
                  1    wreg      void 
 Registers used:
		wreg, fsr0l, fsr0h, fsr1l, fsr1h, status,2, status,0, pclath, cstack
 Tracked objects:
		On entry : 
		On exit  : 
		Unchanged: 
 Data sizes:     COMMON   BANK0   BANK1   BANK2   BANK3   BANK4   BANK5   BANK6   BANK7   BANK8   BANK9  BANK10  BANK11  BANK12  BANK13  BANK14  BANK15  BANK16  BANK17  BANK18  BANK19  BANK20  BANK21  BANK22  BANK23  BANK24  BANK25
      Params:         0       0       0       0       0       0       0       0       0       0       0       0       0       0       0       0       0       0       0       0       0       0       0       0       0       0       0
      Locals:         0       0       0       0       0       0       0       0       0       0       0       0       0       0       0       0       0       0       0       0       0       0       0       0       0       0       0
      Temps:          0       1       0       0       0       0       0       0       0       0       0       0       0       0       0       0       0       0       0       0       0       0       0       0       0       0       0
      Totals:         0       1       0       0       0       0       0       0       0       0       0       0       0       0       0       0       0       0       0       0       0       0       0       0       0       0       0
Total ram usage:        1 bytes
 Hardware stack levels required when called:   15
 This function calls:
		_nullifyBadge_platformInit
		_schedulerExecute
		_scheduler_Init
		_scheduler_TaskAdd
		_scheduler_TaskInit
 This function is called by:
		Startup code after reset
 This function uses a non-reentrant model


 *************** function _scheduler_TaskInit *****************
 Defined at:
		line 36 in file "cooperative_scheduler.c"
 Parameters:    Size  Location     Type
  task            1    wreg     PTR struct t_schedulerTa
		 -> matrix_task(13), secret_task(13), locked_task(13), slot_task(13), 
		 -> menu_task(13), flashy_task(13), 
 Auto vars:     Size  Location     Type
  task            1    1[COMMON] PTR struct t_schedulerTa
		 -> matrix_task(13), secret_task(13), locked_task(13), slot_task(13), 
		 -> menu_task(13), flashy_task(13), 
 Return value:  Size  Location     Type
                  1    wreg      void 
 Registers used:
		wreg, fsr1l, fsr1h, status,2, status,0
 Tracked objects:
		On entry : 
		On exit  : 
		Unchanged: 
 Data sizes:     COMMON   BANK0   BANK1   BANK2   BANK3   BANK4   BANK5   BANK6   BANK7   BANK8   BANK9  BANK10  BANK11  BANK12  BANK13  BANK14  BANK15  BANK16  BANK17  BANK18  BANK19  BANK20  BANK21  BANK22  BANK23  BANK24  BANK25
      Params:         0       0       0       0       0       0       0       0       0       0       0       0       0       0       0       0       0       0       0       0       0       0       0       0       0       0       0
      Locals:         1       0       0       0       0       0       0       0       0       0       0       0       0       0       0       0       0       0       0       0       0       0       0       0       0       0       0
      Temps:          0       0       0       0       0       0       0       0       0       0       0       0       0       0       0       0       0       0       0       0       0       0       0       0       0       0       0
      Totals:         1       0       0       0       0       0       0       0       0       0       0       0       0       0       0       0       0       0       0       0       0       0       0       0       0       0       0
Total ram usage:        1 bytes
 Hardware stack levels used:    1
 Hardware stack levels required when called:    4
 This function calls:
		Nothing
 This function is called by:
		_main
 This function uses a non-reentrant model


 *************** function _scheduler_TaskAdd *****************
 Defined at:
		line 46 in file "cooperative_scheduler.c"
 Parameters:    Size  Location     Type
  scheduler       1    wreg     PTR struct t_scheduler
		 -> schedulerInst(18), 
  task            1   31[BANK0 ] PTR struct t_schedulerTa
		 -> matrix_task(13), secret_task(13), locked_task(13), slot_task(13), 
		 -> menu_task(13), flashy_task(13), 
 Auto vars:     Size  Location     Type
  scheduler       1   38[BANK0 ] PTR struct t_scheduler
		 -> schedulerInst(18), 
  k               1   39[BANK0 ] unsigned char 
 Return value:  Size  Location     Type
                  1    wreg      char 
 Registers used:
		wreg, fsr0l, fsr0h, fsr1l, fsr1h, status,2, status,0, pclath, cstack
 Tracked objects:
		On entry : 
		On exit  : 
		Unchanged: 
 Data sizes:     COMMON   BANK0   BANK1   BANK2   BANK3   BANK4   BANK5   BANK6   BANK7   BANK8   BANK9  BANK10  BANK11  BANK12  BANK13  BANK14  BANK15  BANK16  BANK17  BANK18  BANK19  BANK20  BANK21  BANK22  BANK23  BANK24  BANK25
      Params:         0       1       0       0       0       0       0       0       0       0       0       0       0       0       0       0       0       0       0       0       0       0       0       0       0       0       0
      Locals:         0       2       0       0       0       0       0       0       0       0       0       0       0       0       0       0       0       0       0       0       0       0       0       0       0       0       0
      Temps:          0       6       0       0       0       0       0       0       0       0       0       0       0       0       0       0       0       0       0       0       0       0       0       0       0       0       0
      Totals:         0       9       0       0       0       0       0       0       0       0       0       0       0       0       0       0       0       0       0       0       0       0       0       0       0       0       0
Total ram usage:        9 bytes
 Hardware stack levels used:    1
 Hardware stack levels required when called:   11
 This function calls:
		Absolute function
		_flashy_Init
		_locked_Init
		_matrix_Init
		_menu_Init
		_secret_Init
		_slot_Init
 This function is called by:
		_main
 This function uses a non-reentrant model


 *************** function _matrix_Init *****************
 Defined at:
		line 66 in file "matrix_task.c"
 Parameters:    Size  Location     Type
  taskData        2   25[BANK0 ] PTR void 
		 -> matrix_TaskData(31), secret_TaskData(14), locked_TaskData(14), slot_TaskData(40), 
		 -> menu_TaskData(14), flashy_TaskData(30), NULL(0), 
 Auto vars:     Size  Location     Type
  data            2   29[BANK0 ] PTR struct t_matrix_task
		 -> matrix_TaskData(31), secret_TaskData(14), locked_TaskData(14), slot_TaskData(40), 
		 -> menu_TaskData(14), flashy_TaskData(30), NULL(0), 
 Return value:  Size  Location     Type
                  1    wreg      void 
 Registers used:
		wreg, fsr0l, fsr0h, fsr1l, fsr1h, status,2, status,0, pclath, cstack
 Tracked objects:
		On entry : 
		On exit  : 
		Unchanged: 
 Data sizes:     COMMON   BANK0   BANK1   BANK2   BANK3   BANK4   BANK5   BANK6   BANK7   BANK8   BANK9  BANK10  BANK11  BANK12  BANK13  BANK14  BANK15  BANK16  BANK17  BANK18  BANK19  BANK20  BANK21  BANK22  BANK23  BANK24  BANK25
      Params:         0       2       0       0       0       0       0       0       0       0       0       0       0       0       0       0       0       0       0       0       0       0       0       0       0       0       0
      Locals:         0       2       0       0       0       0       0       0       0       0       0       0       0       0       0       0       0       0       0       0       0       0       0       0       0       0       0
      Temps:          0       2       0       0       0       0       0       0       0       0       0       0       0       0       0       0       0       0       0       0       0       0       0       0       0       0       0
      Totals:         0       6       0       0       0       0       0       0       0       0       0       0       0       0       0       0       0       0       0       0       0       0       0       0       0       0       0
Total ram usage:        6 bytes
 Hardware stack levels used:    1
 Hardware stack levels required when called:   10
 This function calls:
		_nullifyBadge_segDisplayErase
		_nullifyBadge_segDisplayRegister
		_nullifyBadge_userLedsClr
		_nullifyBadge_userLedsRegister
 This function is called by:
		_main
		_scheduler_TaskAdd
 This function uses a non-reentrant model


 *************** function _secret_Init *****************
 Defined at:
		line 51 in file "secret_task.c"
 Parameters:    Size  Location     Type
  taskData        2   25[BANK0 ] PTR void 
		 -> matrix_TaskData(31), secret_TaskData(14), locked_TaskData(14), slot_TaskData(40), 
		 -> menu_TaskData(14), flashy_TaskData(30), NULL(0), 
 Auto vars:     Size  Location     Type
  data            2   27[BANK0 ] PTR struct t_secret_task
		 -> matrix_TaskData(31), secret_TaskData(14), locked_TaskData(14), slot_TaskData(40), 
		 -> menu_TaskData(14), flashy_TaskData(30), NULL(0), 
 Return value:  Size  Location     Type
                  1    wreg      void 
 Registers used:
		wreg, fsr0l, fsr0h, fsr1l, fsr1h, status,2, status,0, pclath, cstack
 Tracked objects:
		On entry : 
		On exit  : 
		Unchanged: 
 Data sizes:     COMMON   BANK0   BANK1   BANK2   BANK3   BANK4   BANK5   BANK6   BANK7   BANK8   BANK9  BANK10  BANK11  BANK12  BANK13  BANK14  BANK15  BANK16  BANK17  BANK18  BANK19  BANK20  BANK21  BANK22  BANK23  BANK24  BANK25
      Params:         0       2       0       0       0       0       0       0       0       0       0       0       0       0       0       0       0       0       0       0       0       0       0       0       0       0       0
      Locals:         0       2       0       0       0       0       0       0       0       0       0       0       0       0       0       0       0       0       0       0       0       0       0       0       0       0       0
      Temps:          0       0       0       0       0       0       0       0       0       0       0       0       0       0       0       0       0       0       0       0       0       0       0       0       0       0       0
      Totals:         0       4       0       0       0       0       0       0       0       0       0       0       0       0       0       0       0       0       0       0       0       0       0       0       0       0       0
Total ram usage:        4 bytes
 Hardware stack levels used:    1
 Hardware stack levels required when called:   10
 This function calls:
		_nullifyBadge_segDisplayErase
		_nullifyBadge_segDisplayRegister
		_nullifyBadge_userLedsClr
		_nullifyBadge_userLedsRegister
 This function is called by:
		_main
		_scheduler_TaskAdd
 This function uses a non-reentrant model


 *************** function _locked_Init *****************
 Defined at:
		line 65 in file "locked_task.c"
 Parameters:    Size  Location     Type
  taskData        2   25[BANK0 ] PTR void 
		 -> matrix_TaskData(31), secret_TaskData(14), locked_TaskData(14), slot_TaskData(40), 
		 -> menu_TaskData(14), flashy_TaskData(30), NULL(0), 
 Auto vars:     Size  Location     Type
  data            2   27[BANK0 ] PTR struct t_locked_task
		 -> matrix_TaskData(31), secret_TaskData(14), locked_TaskData(14), slot_TaskData(40), 
		 -> menu_TaskData(14), flashy_TaskData(30), NULL(0), 
 Return value:  Size  Location     Type
                  1    wreg      void 
 Registers used:
		wreg, fsr0l, fsr0h, fsr1l, fsr1h, status,2, status,0, pclath, cstack
 Tracked objects:
		On entry : 
		On exit  : 
		Unchanged: 
 Data sizes:     COMMON   BANK0   BANK1   BANK2   BANK3   BANK4   BANK5   BANK6   BANK7   BANK8   BANK9  BANK10  BANK11  BANK12  BANK13  BANK14  BANK15  BANK16  BANK17  BANK18  BANK19  BANK20  BANK21  BANK22  BANK23  BANK24  BANK25
      Params:         0       2       0       0       0       0       0       0       0       0       0       0       0       0       0       0       0       0       0       0       0       0       0       0       0       0       0
      Locals:         0       2       0       0       0       0       0       0       0       0       0       0       0       0       0       0       0       0       0       0       0       0       0       0       0       0       0
      Temps:          0       0       0       0       0       0       0       0       0       0       0       0       0       0       0       0       0       0       0       0       0       0       0       0       0       0       0
      Totals:         0       4       0       0       0       0       0       0       0       0       0       0       0       0       0       0       0       0       0       0       0       0       0       0       0       0       0
Total ram usage:        4 bytes
 Hardware stack levels used:    1
 Hardware stack levels required when called:   10
 This function calls:
		_locked_lock_leds
		_nullifyBadge_segDisplayErase
		_nullifyBadge_segDisplayRegister
		_nullifyBadge_userLedsClr
		_nullifyBadge_userLedsRegister
 This function is called by:
		_main
		_scheduler_TaskAdd
 This function uses a non-reentrant model


 *************** function _menu_Init *****************
 Defined at:
		line 37 in file "menu_task.c"
 Parameters:    Size  Location     Type
  taskData        2   25[BANK0 ] PTR void 
		 -> matrix_TaskData(31), secret_TaskData(14), locked_TaskData(14), slot_TaskData(40), 
		 -> menu_TaskData(14), flashy_TaskData(30), NULL(0), 
 Auto vars:     Size  Location     Type
  data            2   27[BANK0 ] PTR struct t_menu_taskDa
		 -> matrix_TaskData(31), secret_TaskData(14), locked_TaskData(14), slot_TaskData(40), 
		 -> menu_TaskData(14), flashy_TaskData(30), NULL(0), 
 Return value:  Size  Location     Type
                  1    wreg      void 
 Registers used:
		wreg, fsr0l, fsr0h, fsr1l, fsr1h, status,2, status,0, pclath, cstack
 Tracked objects:
		On entry : 
		On exit  : 
		Unchanged: 
 Data sizes:     COMMON   BANK0   BANK1   BANK2   BANK3   BANK4   BANK5   BANK6   BANK7   BANK8   BANK9  BANK10  BANK11  BANK12  BANK13  BANK14  BANK15  BANK16  BANK17  BANK18  BANK19  BANK20  BANK21  BANK22  BANK23  BANK24  BANK25
      Params:         0       2       0       0       0       0       0       0       0       0       0       0       0       0       0       0       0       0       0       0       0       0       0       0       0       0       0
      Locals:         0       2       0       0       0       0       0       0       0       0       0       0       0       0       0       0       0       0       0       0       0       0       0       0       0       0       0
      Temps:          0       0       0       0       0       0       0       0       0       0       0       0       0       0       0       0       0       0       0       0       0       0       0       0       0       0       0
      Totals:         0       4       0       0       0       0       0       0       0       0       0       0       0       0       0       0       0       0       0       0       0       0       0       0       0       0       0
Total ram usage:        4 bytes
 Hardware stack levels used:    1
 Hardware stack levels required when called:   10
 This function calls:
		_nullifyBadge_segDisplayErase
		_nullifyBadge_segDisplayRegister
		_nullifyBadge_userLedsClr
		_nullifyBadge_userLedsRegister
 This function is called by:
		_main
		_scheduler_TaskAdd
 This function uses a non-reentrant model


 *************** function _flashy_Init *****************
 Defined at:
		line 66 in file "flashy_task.c"
 Parameters:    Size  Location     Type
  taskData        2   25[BANK0 ] PTR void 
		 -> matrix_TaskData(31), secret_TaskData(14), locked_TaskData(14), slot_TaskData(40), 
		 -> menu_TaskData(14), flashy_TaskData(30), NULL(0), 
 Auto vars:     Size  Location     Type
  data            2   27[BANK0 ] PTR struct t_flashy_task
		 -> matrix_TaskData(31), secret_TaskData(14), locked_TaskData(14), slot_TaskData(40), 
		 -> menu_TaskData(14), flashy_TaskData(30), NULL(0), 
 Return value:  Size  Location     Type
                  1    wreg      void 
 Registers used:
		wreg, fsr0l, fsr0h, fsr1l, fsr1h, status,2, status,0, pclath, cstack
 Tracked objects:
		On entry : 
		On exit  : 
		Unchanged: 
 Data sizes:     COMMON   BANK0   BANK1   BANK2   BANK3   BANK4   BANK5   BANK6   BANK7   BANK8   BANK9  BANK10  BANK11  BANK12  BANK13  BANK14  BANK15  BANK16  BANK17  BANK18  BANK19  BANK20  BANK21  BANK22  BANK23  BANK24  BANK25
      Params:         0       2       0       0       0       0       0       0       0       0       0       0       0       0       0       0       0       0       0       0       0       0       0       0       0       0       0
      Locals:         0       2       0       0       0       0       0       0       0       0       0       0       0       0       0       0       0       0       0       0       0       0       0       0       0       0       0
      Temps:          0       0       0       0       0       0       0       0       0       0       0       0       0       0       0       0       0       0       0       0       0       0       0       0       0       0       0
      Totals:         0       4       0       0       0       0       0       0       0       0       0       0       0       0       0       0       0       0       0       0       0       0       0       0       0       0       0
Total ram usage:        4 bytes
 Hardware stack levels used:    1
 Hardware stack levels required when called:   10
 This function calls:
		_nullifyBadge_segDisplayErase
		_nullifyBadge_segDisplayRegister
		_nullifyBadge_userLedsClr
		_nullifyBadge_userLedsRegister
 This function is called by:
		_main
		_scheduler_TaskAdd
 This function uses a non-reentrant model


 *************** function _slot_Init *****************
 Defined at:
		line 29 in file "slot_task.c"
 Parameters:    Size  Location     Type
  taskData        2   25[BANK0 ] PTR void 
		 -> matrix_TaskData(31), secret_TaskData(14), locked_TaskData(14), slot_TaskData(40), 
		 -> menu_TaskData(14), flashy_TaskData(30), NULL(0), 
 Auto vars:     Size  Location     Type
  data            2   27[BANK0 ] PTR struct t_slot_taskDa
		 -> matrix_TaskData(31), secret_TaskData(14), locked_TaskData(14), slot_TaskData(40), 
		 -> menu_TaskData(14), flashy_TaskData(30), NULL(0), 
 Return value:  Size  Location     Type
                  1    wreg      void 
 Registers used:
		wreg, fsr0l, fsr0h, fsr1l, fsr1h, status,2, status,0, pclath, cstack
 Tracked objects:
		On entry : 
		On exit  : 
		Unchanged: 
 Data sizes:     COMMON   BANK0   BANK1   BANK2   BANK3   BANK4   BANK5   BANK6   BANK7   BANK8   BANK9  BANK10  BANK11  BANK12  BANK13  BANK14  BANK15  BANK16  BANK17  BANK18  BANK19  BANK20  BANK21  BANK22  BANK23  BANK24  BANK25
      Params:         0       2       0       0       0       0       0       0       0       0       0       0       0       0       0       0       0       0       0       0       0       0       0       0       0       0       0
      Locals:         0       2       0       0       0       0       0       0       0       0       0       0       0       0       0       0       0       0       0       0       0       0       0       0       0       0       0
      Temps:          0       0       0       0       0       0       0       0       0       0       0       0       0       0       0       0       0       0       0       0       0       0       0       0       0       0       0
      Totals:         0       4       0       0       0       0       0       0       0       0       0       0       0       0       0       0       0       0       0       0       0       0       0       0       0       0       0
Total ram usage:        4 bytes
 Hardware stack levels used:    1
 Hardware stack levels required when called:   10
 This function calls:
		_nullifyBadge_segDisplayErase
		_nullifyBadge_segDisplayRegister
		_nullifyBadge_userLedsClr
		_nullifyBadge_userLedsRegister
		_slot_Setup
 This function is called by:
		_main
		_scheduler_TaskAdd
 This function uses a non-reentrant model


 *************** function _nullifyBadge_userLedsRegister *****************
 Defined at:
		line 133 in file "nullifyBadge.c"
 Parameters:    Size  Location     Type
  badge           1    wreg     PTR struct t_nullifyBadg
		 -> badge_inst(18), 
 Auto vars:     Size  Location     Type
  badge           1    1[COMMON] PTR struct t_nullifyBadg
		 -> badge_inst(18), 
 Return value:  Size  Location     Type
                  1    wreg      char 
 Registers used:
		wreg, fsr1l, fsr1h, status,2, status,0
 Tracked objects:
		On entry : 
		On exit  : 
		Unchanged: 
 Data sizes:     COMMON   BANK0   BANK1   BANK2   BANK3   BANK4   BANK5   BANK6   BANK7   BANK8   BANK9  BANK10  BANK11  BANK12  BANK13  BANK14  BANK15  BANK16  BANK17  BANK18  BANK19  BANK20  BANK21  BANK22  BANK23  BANK24  BANK25
      Params:         0       0       0       0       0       0       0       0       0       0       0       0       0       0       0       0       0       0       0       0       0       0       0       0       0       0       0
      Locals:         1       0       0       0       0       0       0       0       0       0       0       0       0       0       0       0       0       0       0       0       0       0       0       0       0       0       0
      Temps:          0       0       0       0       0       0       0       0       0       0       0       0       0       0       0       0       0       0       0       0       0       0       0       0       0       0       0
      Totals:         1       0       0       0       0       0       0       0       0       0       0       0       0       0       0       0       0       0       0       0       0       0       0       0       0       0       0
Total ram usage:        1 bytes
 Hardware stack levels used:    1
 Hardware stack levels required when called:    4
 This function calls:
		Nothing
 This function is called by:
		_menu_Init
		_flashy_Init
		_locked_Init
		_secret_Init
		_slot_Init
		_matrix_Init
 This function uses a non-reentrant model


 *************** function _nullifyBadge_segDisplayRegister *****************
 Defined at:
		line 68 in file "nullifyBadge.c"
 Parameters:    Size  Location     Type
  badge           1    wreg     PTR struct t_nullifyBadg
		 -> badge_inst(18), 
 Auto vars:     Size  Location     Type
  badge           1    1[COMMON] PTR struct t_nullifyBadg
		 -> badge_inst(18), 
 Return value:  Size  Location     Type
                  1    wreg      char 
 Registers used:
		wreg, fsr1l, fsr1h, status,2, status,0
 Tracked objects:
		On entry : 
		On exit  : 
		Unchanged: 
 Data sizes:     COMMON   BANK0   BANK1   BANK2   BANK3   BANK4   BANK5   BANK6   BANK7   BANK8   BANK9  BANK10  BANK11  BANK12  BANK13  BANK14  BANK15  BANK16  BANK17  BANK18  BANK19  BANK20  BANK21  BANK22  BANK23  BANK24  BANK25
      Params:         0       0       0       0       0       0       0       0       0       0       0       0       0       0       0       0       0       0       0       0       0       0       0       0       0       0       0
      Locals:         1       0       0       0       0       0       0       0       0       0       0       0       0       0       0       0       0       0       0       0       0       0       0       0       0       0       0
      Temps:          0       0       0       0       0       0       0       0       0       0       0       0       0       0       0       0       0       0       0       0       0       0       0       0       0       0       0
      Totals:         1       0       0       0       0       0       0       0       0       0       0       0       0       0       0       0       0       0       0       0       0       0       0       0       0       0       0
Total ram usage:        1 bytes
 Hardware stack levels used:    1
 Hardware stack levels required when called:    4
 This function calls:
		Nothing
 This function is called by:
		_menu_Init
		_flashy_Init
		_locked_Init
		_secret_Init
		_slot_Init
		_matrix_Init
		_fadeDisplay_Init
 This function uses a non-reentrant model


 *************** function _scheduler_Init *****************
 Defined at:
		line 27 in file "cooperative_scheduler.c"
 Parameters:    Size  Location     Type
  scheduler       1    wreg     PTR struct t_scheduler
		 -> schedulerInst(18), 
 Auto vars:     Size  Location     Type
  scheduler       1    2[COMMON] PTR struct t_scheduler
		 -> schedulerInst(18), 
  k               1    3[COMMON] unsigned char 
 Return value:  Size  Location     Type
                  1    wreg      void 
 Registers used:
		wreg, fsr1l, fsr1h, status,2, status,0
 Tracked objects:
		On entry : 
		On exit  : 
		Unchanged: 
 Data sizes:     COMMON   BANK0   BANK1   BANK2   BANK3   BANK4   BANK5   BANK6   BANK7   BANK8   BANK9  BANK10  BANK11  BANK12  BANK13  BANK14  BANK15  BANK16  BANK17  BANK18  BANK19  BANK20  BANK21  BANK22  BANK23  BANK24  BANK25
      Params:         0       0       0       0       0       0       0       0       0       0       0       0       0       0       0       0       0       0       0       0       0       0       0       0       0       0       0
      Locals:         2       0       0       0       0       0       0       0       0       0       0       0       0       0       0       0       0       0       0       0       0       0       0       0       0       0       0
      Temps:          1       0       0       0       0       0       0       0       0       0       0       0       0       0       0       0       0       0       0       0       0       0       0       0       0       0       0
      Totals:         3       0       0       0       0       0       0       0       0       0       0       0       0       0       0       0       0       0       0       0       0       0       0       0       0       0       0
Total ram usage:        3 bytes
 Hardware stack levels used:    1
 Hardware stack levels required when called:    4
 This function calls:
		Nothing
 This function is called by:
		_main
 This function uses a non-reentrant model


 *************** function _schedulerExecute *****************
 Defined at:
		line 77 in file "cooperative_scheduler.c"
 Parameters:    Size  Location     Type
  scheduler       1    wreg     PTR struct t_scheduler
		 -> schedulerInst(18), 
 Auto vars:     Size  Location     Type
  scheduler       1    6[BANK1 ] PTR struct t_scheduler
		 -> schedulerInst(18), 
  tickDelta       2    4[BANK1 ] unsigned int 
  taskLastSyst    2    2[BANK1 ] unsigned int 
  currentSyste    2    0[BANK1 ] unsigned int 
  k               1    7[BANK1 ] unsigned char 
 Return value:  Size  Location     Type
                  1    wreg      void 
 Registers used:
		wreg, fsr0l, fsr0h, fsr1l, fsr1h, status,2, status,0, pclath, cstack
 Tracked objects:
		On entry : 
		On exit  : 
		Unchanged: 
 Data sizes:     COMMON   BANK0   BANK1   BANK2   BANK3   BANK4   BANK5   BANK6   BANK7   BANK8   BANK9  BANK10  BANK11  BANK12  BANK13  BANK14  BANK15  BANK16  BANK17  BANK18  BANK19  BANK20  BANK21  BANK22  BANK23  BANK24  BANK25
      Params:         0       0       0       0       0       0       0       0       0       0       0       0       0       0       0       0       0       0       0       0       0       0       0       0       0       0       0
      Locals:         0       0       8       0       0       0       0       0       0       0       0       0       0       0       0       0       0       0       0       0       0       0       0       0       0       0       0
      Temps:          0       6       0       0       0       0       0       0       0       0       0       0       0       0       0       0       0       0       0       0       0       0       0       0       0       0       0
      Totals:         0       6       8       0       0       0       0       0       0       0       0       0       0       0       0       0       0       0       0       0       0       0       0       0       0       0       0
Total ram usage:       14 bytes
 Hardware stack levels used:    1
 Hardware stack levels required when called:   14
 This function calls:
		_TMR0_Read16bitTimer
		_scheduler_TaskRun
 This function is called by:
		_main
 This function uses a non-reentrant model


 *************** function _scheduler_TaskRun *****************
 Defined at:
		line 20 in file "cooperative_scheduler.c"
 Parameters:    Size  Location     Type
  task            1    wreg     PTR struct t_schedulerTa
		 -> matrix_task(13), secret_task(13), locked_task(13), slot_task(13), 
		 -> menu_task(13), flashy_task(13), NULL(0), 
 Auto vars:     Size  Location     Type
  task            1   71[BANK0 ] PTR struct t_schedulerTa
		 -> matrix_task(13), secret_task(13), locked_task(13), slot_task(13), 
		 -> menu_task(13), flashy_task(13), NULL(0), 
 Return value:  Size  Location     Type
                  1    wreg      void 
 Registers used:
		wreg, fsr0l, fsr0h, fsr1l, fsr1h, status,2, status,0, pclath, cstack
 Tracked objects:
		On entry : 
		On exit  : 
		Unchanged: 
 Data sizes:     COMMON   BANK0   BANK1   BANK2   BANK3   BANK4   BANK5   BANK6   BANK7   BANK8   BANK9  BANK10  BANK11  BANK12  BANK13  BANK14  BANK15  BANK16  BANK17  BANK18  BANK19  BANK20  BANK21  BANK22  BANK23  BANK24  BANK25
      Params:         0       0       0       0       0       0       0       0       0       0       0       0       0       0       0       0       0       0       0       0       0       0       0       0       0       0       0
      Locals:         0       1       0       0       0       0       0       0       0       0       0       0       0       0       0       0       0       0       0       0       0       0       0       0       0       0       0
      Temps:          0       0       0       0       0       0       0       0       0       0       0       0       0       0       0       0       0       0       0       0       0       0       0       0       0       0       0
      Totals:         0       1       0       0       0       0       0       0       0       0       0       0       0       0       0       0       0       0       0       0       0       0       0       0       0       0       0
Total ram usage:        1 bytes
 Hardware stack levels used:    1
 Hardware stack levels required when called:   13
 This function calls:
		Absolute function
		_TMR0_Read16bitTimer
		_flashy_Main
		_locked_Main
		_matrix_Main
		_menu_Main
		_secret_Main
		_slot_Main
 This function is called by:
		_schedulerExecute
 This function uses a non-reentrant model


 *************** function _matrix_Main *****************
 Defined at:
		line 148 in file "matrix_task.c"
 Parameters:    Size  Location     Type
  taskData        2   50[BANK0 ] PTR void 
		 -> matrix_TaskData(31), secret_TaskData(14), locked_TaskData(14), slot_TaskData(40), 
		 -> menu_TaskData(14), flashy_TaskData(30), NULL(0), 
 Auto vars:     Size  Location     Type
  data            2   59[BANK0 ] PTR struct t_matrix_task
		 -> matrix_TaskData(31), secret_TaskData(14), locked_TaskData(14), slot_TaskData(40), 
		 -> menu_TaskData(14), flashy_TaskData(30), NULL(0), 
  holdvalue       1   58[BANK0 ] unsigned char 
  buttonPresse    1   57[BANK0 ] unsigned char 
  matrix_found    1   56[BANK0 ] unsigned char 
 Return value:  Size  Location     Type
                  1    wreg      void 
 Registers used:
		wreg, fsr0l, fsr0h, fsr1l, fsr1h, status,2, status,0, pclath, cstack
 Tracked objects:
		On entry : 
		On exit  : 
		Unchanged: 
 Data sizes:     COMMON   BANK0   BANK1   BANK2   BANK3   BANK4   BANK5   BANK6   BANK7   BANK8   BANK9  BANK10  BANK11  BANK12  BANK13  BANK14  BANK15  BANK16  BANK17  BANK18  BANK19  BANK20  BANK21  BANK22  BANK23  BANK24  BANK25
      Params:         0       2       0       0       0       0       0       0       0       0       0       0       0       0       0       0       0       0       0       0       0       0       0       0       0       0       0
      Locals:         0       5       0       0       0       0       0       0       0       0       0       0       0       0       0       0       0       0       0       0       0       0       0       0       0       0       0
      Temps:          0       4       0       0       0       0       0       0       0       0       0       0       0       0       0       0       0       0       0       0       0       0       0       0       0       0       0
      Totals:         0      11       0       0       0       0       0       0       0       0       0       0       0       0       0       0       0       0       0       0       0       0       0       0       0       0       0
Total ram usage:       11 bytes
 Hardware stack levels used:    1
 Hardware stack levels required when called:   11
 This function calls:
		_led_Parody
		_led_curtain
		_matrix_display_option
		_matrix_secret_check
		_nullifyBadge_buttonsGet
 This function is called by:
		_main
		_scheduler_TaskRun
 This function uses a non-reentrant model


 *************** function _secret_Main *****************
 Defined at:
		line 99 in file "secret_task.c"
 Parameters:    Size  Location     Type
  taskData        2   50[BANK0 ] PTR void 
		 -> matrix_TaskData(31), secret_TaskData(14), locked_TaskData(14), slot_TaskData(40), 
		 -> menu_TaskData(14), flashy_TaskData(30), NULL(0), 
 Auto vars:     Size  Location     Type
  data            2   56[BANK0 ] PTR struct t_secret_task
		 -> matrix_TaskData(31), secret_TaskData(14), locked_TaskData(14), slot_TaskData(40), 
		 -> menu_TaskData(14), flashy_TaskData(30), NULL(0), 
  buttonPresse    1   55[BANK0 ] unsigned char 
  secret_found    1   54[BANK0 ] unsigned char 
 Return value:  Size  Location     Type
                  1    wreg      void 
 Registers used:
		wreg, fsr0l, fsr0h, fsr1l, fsr1h, status,2, status,0, pclath, cstack
 Tracked objects:
		On entry : 
		On exit  : 
		Unchanged: 
 Data sizes:     COMMON   BANK0   BANK1   BANK2   BANK3   BANK4   BANK5   BANK6   BANK7   BANK8   BANK9  BANK10  BANK11  BANK12  BANK13  BANK14  BANK15  BANK16  BANK17  BANK18  BANK19  BANK20  BANK21  BANK22  BANK23  BANK24  BANK25
      Params:         0       2       0       0       0       0       0       0       0       0       0       0       0       0       0       0       0       0       0       0       0       0       0       0       0       0       0
      Locals:         0       4       0       0       0       0       0       0       0       0       0       0       0       0       0       0       0       0       0       0       0       0       0       0       0       0       0
      Temps:          0       2       0       0       0       0       0       0       0       0       0       0       0       0       0       0       0       0       0       0       0       0       0       0       0       0       0
      Totals:         0       8       0       0       0       0       0       0       0       0       0       0       0       0       0       0       0       0       0       0       0       0       0       0       0       0       0
Total ram usage:        8 bytes
 Hardware stack levels used:    1
 Hardware stack levels required when called:    6
 This function calls:
		_nullifyBadge_buttonsGet
		_secret_check
		_secret_clear
 This function is called by:
		_main
		_scheduler_TaskRun
 This function uses a non-reentrant model


 *************** function _locked_Main *****************
 Defined at:
		line 85 in file "locked_task.c"
 Parameters:    Size  Location     Type
  taskData        2   50[BANK0 ] PTR void 
		 -> matrix_TaskData(31), secret_TaskData(14), locked_TaskData(14), slot_TaskData(40), 
		 -> menu_TaskData(14), flashy_TaskData(30), NULL(0), 
 Auto vars:     Size  Location     Type
  data            2   55[BANK0 ] PTR struct t_locked_task
		 -> matrix_TaskData(31), secret_TaskData(14), locked_TaskData(14), slot_TaskData(40), 
		 -> menu_TaskData(14), flashy_TaskData(30), NULL(0), 
  buttonPresse    1   54[BANK0 ] unsigned char 
 Return value:  Size  Location     Type
                  1    wreg      void 
 Registers used:
		wreg, fsr0l, fsr0h, fsr1l, fsr1h, status,2, status,0, pclath, cstack
 Tracked objects:
		On entry : 
		On exit  : 
		Unchanged: 
 Data sizes:     COMMON   BANK0   BANK1   BANK2   BANK3   BANK4   BANK5   BANK6   BANK7   BANK8   BANK9  BANK10  BANK11  BANK12  BANK13  BANK14  BANK15  BANK16  BANK17  BANK18  BANK19  BANK20  BANK21  BANK22  BANK23  BANK24  BANK25
      Params:         0       2       0       0       0       0       0       0       0       0       0       0       0       0       0       0       0       0       0       0       0       0       0       0       0       0       0
      Locals:         0       3       0       0       0       0       0       0       0       0       0       0       0       0       0       0       0       0       0       0       0       0       0       0       0       0       0
      Temps:          0       2       0       0       0       0       0       0       0       0       0       0       0       0       0       0       0       0       0       0       0       0       0       0       0       0       0
      Totals:         0       7       0       0       0       0       0       0       0       0       0       0       0       0       0       0       0       0       0       0       0       0       0       0       0       0       0
Total ram usage:        7 bytes
 Hardware stack levels used:    1
 Hardware stack levels required when called:   11
 This function calls:
		___lwmod
		_locked_clear
		_locked_get_lock_leds
		_locked_get_unlock_leds
		_locked_lock_leds
		_locked_unlock_leds
		_marquee
		_nullifyBadge_buttonsGet
		_nullifyBadge_userLedsSet
		_slot_Setup
 This function is called by:
		_main
		_scheduler_TaskRun
 This function uses a non-reentrant model


 *************** function _menu_Main *****************
 Defined at:
		line 59 in file "menu_task.c"
 Parameters:    Size  Location     Type
  taskData        2   50[BANK0 ] PTR void 
		 -> matrix_TaskData(31), secret_TaskData(14), locked_TaskData(14), slot_TaskData(40), 
		 -> menu_TaskData(14), flashy_TaskData(30), NULL(0), 
 Auto vars:     Size  Location     Type
  data            2   55[BANK0 ] PTR struct t_menu_taskDa
		 -> matrix_TaskData(31), secret_TaskData(14), locked_TaskData(14), slot_TaskData(40), 
		 -> menu_TaskData(14), flashy_TaskData(30), NULL(0), 
  buttonPresse    1   54[BANK0 ] unsigned char 
 Return value:  Size  Location     Type
                  1    wreg      void 
 Registers used:
		wreg, fsr0l, fsr0h, fsr1l, fsr1h, status,2, status,0, pclath, cstack
 Tracked objects:
		On entry : 
		On exit  : 
		Unchanged: 
 Data sizes:     COMMON   BANK0   BANK1   BANK2   BANK3   BANK4   BANK5   BANK6   BANK7   BANK8   BANK9  BANK10  BANK11  BANK12  BANK13  BANK14  BANK15  BANK16  BANK17  BANK18  BANK19  BANK20  BANK21  BANK22  BANK23  BANK24  BANK25
      Params:         0       2       0       0       0       0       0       0       0       0       0       0       0       0       0       0       0       0       0       0       0       0       0       0       0       0       0
      Locals:         0       3       0       0       0       0       0       0       0       0       0       0       0       0       0       0       0       0       0       0       0       0       0       0       0       0       0
      Temps:          0       2       0       0       0       0       0       0       0       0       0       0       0       0       0       0       0       0       0       0       0       0       0       0       0       0       0
      Totals:         0       7       0       0       0       0       0       0       0       0       0       0       0       0       0       0       0       0       0       0       0       0       0       0       0       0       0
Total ram usage:        7 bytes
 Hardware stack levels used:    1
 Hardware stack levels required when called:   12
 This function calls:
		_menu_clear
		_menu_display_option
		_menu_run_option
		_nullifyBadge_buttonsGet
		_slot_Setup
 This function is called by:
		_main
		_scheduler_TaskRun
 This function uses a non-reentrant model


 *************** function _flashy_Main *****************
 Defined at:
		line 122 in file "flashy_task.c"
 Parameters:    Size  Location     Type
  taskData        2   50[BANK0 ] PTR void 
		 -> matrix_TaskData(31), secret_TaskData(14), locked_TaskData(14), slot_TaskData(40), 
		 -> menu_TaskData(14), flashy_TaskData(30), NULL(0), 
 Auto vars:     Size  Location     Type
  hit_counter     6   54[BANK0 ] unsigned char [6]
  data            2   62[BANK0 ] PTR struct t_flashy_task
		 -> matrix_TaskData(31), secret_TaskData(14), locked_TaskData(14), slot_TaskData(40), 
		 -> menu_TaskData(14), flashy_TaskData(30), NULL(0), 
  buttonPresse    2   60[BANK0 ] unsigned int 
 Return value:  Size  Location     Type
                  1    wreg      void 
 Registers used:
		wreg, fsr0l, fsr0h, fsr1l, fsr1h, status,2, status,0, pclath, cstack
 Tracked objects:
		On entry : 
		On exit  : 
		Unchanged: 
 Data sizes:     COMMON   BANK0   BANK1   BANK2   BANK3   BANK4   BANK5   BANK6   BANK7   BANK8   BANK9  BANK10  BANK11  BANK12  BANK13  BANK14  BANK15  BANK16  BANK17  BANK18  BANK19  BANK20  BANK21  BANK22  BANK23  BANK24  BANK25
      Params:         0       2       0       0       0       0       0       0       0       0       0       0       0       0       0       0       0       0       0       0       0       0       0       0       0       0       0
      Locals:         0      10       0       0       0       0       0       0       0       0       0       0       0       0       0       0       0       0       0       0       0       0       0       0       0       0       0
      Temps:          0       2       0       0       0       0       0       0       0       0       0       0       0       0       0       0       0       0       0       0       0       0       0       0       0       0       0
      Totals:         0      14       0       0       0       0       0       0       0       0       0       0       0       0       0       0       0       0       0       0       0       0       0       0       0       0       0
Total ram usage:       14 bytes
 Hardware stack levels used:    1
 Hardware stack levels required when called:   11
 This function calls:
		_flashy_display_option
		_led_Parody
		_led_circle
		_led_curtain
		_led_rand
		_led_roundabout
		_let_alternate
		_marquee
		_nullifyBadge_buttonsGet
		_nullifyBadge_irGet
		_nullifyBadge_irTxClr
		_nullifyBadge_irTxRegister
		_nullifyBadge_irTxRelease
		_nullifyBadge_irTxSet
		_nullifyBadge_segDisplayForceUpdate
		_nullifyBadge_segDisplayPutStr
		_nullifyBadge_userLedsSet
		_sprintf
 This function is called by:
		_main
		_scheduler_TaskRun
 This function uses a non-reentrant model


 *************** function _slot_Main *****************
 Defined at:
		line 96 in file "slot_task.c"
 Parameters:    Size  Location     Type
  taskData        2   50[BANK0 ] PTR void 
		 -> matrix_TaskData(31), secret_TaskData(14), locked_TaskData(14), slot_TaskData(40), 
		 -> menu_TaskData(14), flashy_TaskData(30), NULL(0), 
 Auto vars:     Size  Location     Type
  data            2   69[BANK0 ] PTR struct t_slot_taskDa
		 -> matrix_TaskData(31), secret_TaskData(14), locked_TaskData(14), slot_TaskData(40), 
		 -> menu_TaskData(14), flashy_TaskData(30), NULL(0), 
  buttonPresse    1   68[BANK0 ] unsigned char 
 Return value:  Size  Location     Type
                  1    wreg      void 
 Registers used:
		wreg, fsr0l, fsr0h, fsr1l, fsr1h, status,2, status,0, pclath, cstack
 Tracked objects:
		On entry : 
		On exit  : 
		Unchanged: 
 Data sizes:     COMMON   BANK0   BANK1   BANK2   BANK3   BANK4   BANK5   BANK6   BANK7   BANK8   BANK9  BANK10  BANK11  BANK12  BANK13  BANK14  BANK15  BANK16  BANK17  BANK18  BANK19  BANK20  BANK21  BANK22  BANK23  BANK24  BANK25
      Params:         0       2       0       0       0       0       0       0       0       0       0       0       0       0       0       0       0       0       0       0       0       0       0       0       0       0       0
      Locals:         0       3       0       0       0       0       0       0       0       0       0       0       0       0       0       0       0       0       0       0       0       0       0       0       0       0       0
      Temps:          0      16       0       0       0       0       0       0       0       0       0       0       0       0       0       0       0       0       0       0       0       0       0       0       0       0       0
      Totals:         0      21       0       0       0       0       0       0       0       0       0       0       0       0       0       0       0       0       0       0       0       0       0       0       0       0       0
Total ram usage:       21 bytes
 Hardware stack levels used:    1
 Hardware stack levels required when called:   11
 This function calls:
		___lwmod
		_marquee
		_marquee_speedy
		_memset
		_nullifyBadge_buttonsGet
		_rand
		_slot_Finished_Animation
		_slot_Running_Animation
		_slot_Setup
		_sprintf
		_strlen
 This function is called by:
		_main
		_scheduler_TaskRun
 This function uses a non-reentrant model


 *************** function _slot_Running_Animation *****************
 Defined at:
		line 64 in file "slot_task.c"
 Parameters:    Size  Location     Type
  taskData        2   18[BANK0 ] PTR void 
		 -> matrix_TaskData(31), secret_TaskData(14), locked_TaskData(14), slot_TaskData(40), 
		 -> menu_TaskData(14), flashy_TaskData(30), NULL(0), 
 Auto vars:     Size  Location     Type
  data            2   22[BANK0 ] PTR struct t_slot_taskDa
		 -> matrix_TaskData(31), secret_TaskData(14), locked_TaskData(14), slot_TaskData(40), 
		 -> menu_TaskData(14), flashy_TaskData(30), NULL(0), 
 Return value:  Size  Location     Type
                  1    wreg      void 
 Registers used:
		wreg, fsr1l, fsr1h, status,2, status,0, pclath, cstack
 Tracked objects:
		On entry : 
		On exit  : 
		Unchanged: 
 Data sizes:     COMMON   BANK0   BANK1   BANK2   BANK3   BANK4   BANK5   BANK6   BANK7   BANK8   BANK9  BANK10  BANK11  BANK12  BANK13  BANK14  BANK15  BANK16  BANK17  BANK18  BANK19  BANK20  BANK21  BANK22  BANK23  BANK24  BANK25
      Params:         0       2       0       0       0       0       0       0       0       0       0       0       0       0       0       0       0       0       0       0       0       0       0       0       0       0       0
      Locals:         0       2       0       0       0       0       0       0       0       0       0       0       0       0       0       0       0       0       0       0       0       0       0       0       0       0       0
      Temps:          0       2       0       0       0       0       0       0       0       0       0       0       0       0       0       0       0       0       0       0       0       0       0       0       0       0       0
      Totals:         0       6       0       0       0       0       0       0       0       0       0       0       0       0       0       0       0       0       0       0       0       0       0       0       0       0       0
Total ram usage:        6 bytes
 Hardware stack levels used:    1
 Hardware stack levels required when called:   10
 This function calls:
		_led_circle
 This function is called by:
		_slot_Main
 This function uses a non-reentrant model


 *************** function _slot_Finished_Animation *****************
 Defined at:
		line 84 in file "slot_task.c"
 Parameters:    Size  Location     Type
  taskData        2   29[BANK0 ] PTR void 
		 -> matrix_TaskData(31), secret_TaskData(14), locked_TaskData(14), slot_TaskData(40), 
		 -> menu_TaskData(14), flashy_TaskData(30), NULL(0), 
 Auto vars:     Size  Location     Type
  data            2   33[BANK0 ] PTR struct t_slot_taskDa
		 -> matrix_TaskData(31), secret_TaskData(14), locked_TaskData(14), slot_TaskData(40), 
		 -> menu_TaskData(14), flashy_TaskData(30), NULL(0), 
 Return value:  Size  Location     Type
                  1    wreg      void 
 Registers used:
		wreg, fsr1l, fsr1h, status,2, status,0, pclath, cstack
 Tracked objects:
		On entry : 
		On exit  : 
		Unchanged: 
 Data sizes:     COMMON   BANK0   BANK1   BANK2   BANK3   BANK4   BANK5   BANK6   BANK7   BANK8   BANK9  BANK10  BANK11  BANK12  BANK13  BANK14  BANK15  BANK16  BANK17  BANK18  BANK19  BANK20  BANK21  BANK22  BANK23  BANK24  BANK25
      Params:         0       2       0       0       0       0       0       0       0       0       0       0       0       0       0       0       0       0       0       0       0       0       0       0       0       0       0
      Locals:         0       2       0       0       0       0       0       0       0       0       0       0       0       0       0       0       0       0       0       0       0       0       0       0       0       0       0
      Temps:          0       2       0       0       0       0       0       0       0       0       0       0       0       0       0       0       0       0       0       0       0       0       0       0       0       0       0
      Totals:         0       6       0       0       0       0       0       0       0       0       0       0       0       0       0       0       0       0       0       0       0       0       0       0       0       0       0
Total ram usage:        6 bytes
 Hardware stack levels used:    1
 Hardware stack levels required when called:   10
 This function calls:
		_led_rand
 This function is called by:
		_slot_Main
 This function uses a non-reentrant model


 *************** function _secret_clear *****************
 Defined at:
		line 178 in file "secret_task.c"
 Parameters:    Size  Location     Type
  data            2    1[COMMON] PTR struct t_secret_task
		 -> matrix_TaskData(31), secret_TaskData(14), locked_TaskData(14), slot_TaskData(40), 
		 -> menu_TaskData(14), flashy_TaskData(30), NULL(0), 
 Auto vars:     Size  Location     Type
		None
 Return value:  Size  Location     Type
                  1    wreg      void 
 Registers used:
		wreg, fsr1l, fsr1h, status,2, status,0
 Tracked objects:
		On entry : 
		On exit  : 
		Unchanged: 
 Data sizes:     COMMON   BANK0   BANK1   BANK2   BANK3   BANK4   BANK5   BANK6   BANK7   BANK8   BANK9  BANK10  BANK11  BANK12  BANK13  BANK14  BANK15  BANK16  BANK17  BANK18  BANK19  BANK20  BANK21  BANK22  BANK23  BANK24  BANK25
      Params:         2       0       0       0       0       0       0       0       0       0       0       0       0       0       0       0       0       0       0       0       0       0       0       0       0       0       0
      Locals:         0       0       0       0       0       0       0       0       0       0       0       0       0       0       0       0       0       0       0       0       0       0       0       0       0       0       0
      Temps:          0       0       0       0       0       0       0       0       0       0       0       0       0       0       0       0       0       0       0       0       0       0       0       0       0       0       0
      Totals:         2       0       0       0       0       0       0       0       0       0       0       0       0       0       0       0       0       0       0       0       0       0       0       0       0       0       0
Total ram usage:        2 bytes
 Hardware stack levels used:    1
 Hardware stack levels required when called:    4
 This function calls:
		Nothing
 This function is called by:
		_secret_Main
 This function uses a non-reentrant model


 *************** function _secret_check *****************
 Defined at:
		line 69 in file "secret_task.c"
 Parameters:    Size  Location     Type
  data            2    7[COMMON] PTR struct t_secret_task
		 -> matrix_TaskData(31), secret_TaskData(14), locked_TaskData(14), slot_TaskData(40), 
		 -> menu_TaskData(14), flashy_TaskData(30), NULL(0), 
  buttonPresse    1    9[COMMON] unsigned char 
 Auto vars:     Size  Location     Type
  i               2    8[BANK0 ] unsigned int 
  hit_counter     6    0        unsigned char [6]
  currents_siz    2    5[BANK0 ] unsigned int 
  size            2    3[BANK0 ] unsigned int 
  inputs          1    7[BANK0 ] PTR unsigned char 
		 -> secret_inputs.inputs(20), secret_inputs(25), 
 Return value:  Size  Location     Type
                  1    wreg      unsigned char 
 Registers used:
		wreg, fsr0l, fsr0h, fsr1l, fsr1h, status,2, status,0, pclath, cstack
 Tracked objects:
		On entry : 
		On exit  : 
		Unchanged: 
 Data sizes:     COMMON   BANK0   BANK1   BANK2   BANK3   BANK4   BANK5   BANK6   BANK7   BANK8   BANK9  BANK10  BANK11  BANK12  BANK13  BANK14  BANK15  BANK16  BANK17  BANK18  BANK19  BANK20  BANK21  BANK22  BANK23  BANK24  BANK25
      Params:         3       0       0       0       0       0       0       0       0       0       0       0       0       0       0       0       0       0       0       0       0       0       0       0       0       0       0
      Locals:         0       7       0       0       0       0       0       0       0       0       0       0       0       0       0       0       0       0       0       0       0       0       0       0       0       0       0
      Temps:          0       3       0       0       0       0       0       0       0       0       0       0       0       0       0       0       0       0       0       0       0       0       0       0       0       0       0
      Totals:         3      10       0       0       0       0       0       0       0       0       0       0       0       0       0       0       0       0       0       0       0       0       0       0       0       0       0
Total ram usage:       13 bytes
 Hardware stack levels used:    1
 Hardware stack levels required when called:    5
 This function calls:
		___bmul
		_strlen
 This function is called by:
		_secret_Main
 This function uses a non-reentrant model


 *************** function _menu_run_option *****************
 Defined at:
		line 185 in file "menu_task.c"
 Parameters:    Size  Location     Type
  data            2   27[BANK0 ] PTR struct t_menu_taskDa
		 -> matrix_TaskData(31), secret_TaskData(14), locked_TaskData(14), slot_TaskData(40), 
		 -> menu_TaskData(14), flashy_TaskData(30), NULL(0), 
 Auto vars:     Size  Location     Type
		None
 Return value:  Size  Location     Type
                  1    wreg      void 
 Registers used:
		wreg, fsr0l, fsr0h, fsr1l, fsr1h, status,2, status,0, pclath, cstack
 Tracked objects:
		On entry : 
		On exit  : 
		Unchanged: 
 Data sizes:     COMMON   BANK0   BANK1   BANK2   BANK3   BANK4   BANK5   BANK6   BANK7   BANK8   BANK9  BANK10  BANK11  BANK12  BANK13  BANK14  BANK15  BANK16  BANK17  BANK18  BANK19  BANK20  BANK21  BANK22  BANK23  BANK24  BANK25
      Params:         0       2       0       0       0       0       0       0       0       0       0       0       0       0       0       0       0       0       0       0       0       0       0       0       0       0       0
      Locals:         0       0       0       0       0       0       0       0       0       0       0       0       0       0       0       0       0       0       0       0       0       0       0       0       0       0       0
      Temps:          0       0       0       0       0       0       0       0       0       0       0       0       0       0       0       0       0       0       0       0       0       0       0       0       0       0       0
      Totals:         0       2       0       0       0       0       0       0       0       0       0       0       0       0       0       0       0       0       0       0       0       0       0       0       0       0       0
Total ram usage:        2 bytes
 Hardware stack levels used:    1
 Hardware stack levels required when called:   11
 This function calls:
		_menu_clear
 This function is called by:
		_menu_Main
 This function uses a non-reentrant model


 *************** function _menu_clear *****************
 Defined at:
		line 206 in file "menu_task.c"
 Parameters:    Size  Location     Type
  data            2   25[BANK0 ] PTR struct t_menu_taskDa
		 -> matrix_TaskData(31), secret_TaskData(14), locked_TaskData(14), slot_TaskData(40), 
		 -> menu_TaskData(14), flashy_TaskData(30), NULL(0), 
 Auto vars:     Size  Location     Type
		None
 Return value:  Size  Location     Type
                  1    wreg      void 
 Registers used:
		wreg, fsr0l, fsr0h, fsr1l, fsr1h, status,2, status,0, pclath, cstack
 Tracked objects:
		On entry : 
		On exit  : 
		Unchanged: 
 Data sizes:     COMMON   BANK0   BANK1   BANK2   BANK3   BANK4   BANK5   BANK6   BANK7   BANK8   BANK9  BANK10  BANK11  BANK12  BANK13  BANK14  BANK15  BANK16  BANK17  BANK18  BANK19  BANK20  BANK21  BANK22  BANK23  BANK24  BANK25
      Params:         0       2       0       0       0       0       0       0       0       0       0       0       0       0       0       0       0       0       0       0       0       0       0       0       0       0       0
      Locals:         0       0       0       0       0       0       0       0       0       0       0       0       0       0       0       0       0       0       0       0       0       0       0       0       0       0       0
      Temps:          0       0       0       0       0       0       0       0       0       0       0       0       0       0       0       0       0       0       0       0       0       0       0       0       0       0       0
      Totals:         0       2       0       0       0       0       0       0       0       0       0       0       0       0       0       0       0       0       0       0       0       0       0       0       0       0       0
Total ram usage:        2 bytes
 Hardware stack levels used:    1
 Hardware stack levels required when called:   10
 This function calls:
		_nullifyBadge_segDisplayErase
		_nullifyBadge_userLedsClr
 This function is called by:
		_menu_Main
		_menu_run_option
 This function uses a non-reentrant model


 *************** function _menu_display_option *****************
 Defined at:
		line 166 in file "menu_task.c"
 Parameters:    Size  Location     Type
  data            2   44[BANK0 ] PTR struct t_menu_taskDa
		 -> matrix_TaskData(31), secret_TaskData(14), locked_TaskData(14), slot_TaskData(40), 
		 -> menu_TaskData(14), flashy_TaskData(30), NULL(0), 
 Auto vars:     Size  Location     Type
  led             2   48[BANK0 ] unsigned int 
  size            2   46[BANK0 ] unsigned int 
 Return value:  Size  Location     Type
                  1    wreg      void 
 Registers used:
		wreg, fsr0l, fsr0h, fsr1l, fsr1h, status,2, status,0, pclath, cstack
 Tracked objects:
		On entry : 
		On exit  : 
		Unchanged: 
 Data sizes:     COMMON   BANK0   BANK1   BANK2   BANK3   BANK4   BANK5   BANK6   BANK7   BANK8   BANK9  BANK10  BANK11  BANK12  BANK13  BANK14  BANK15  BANK16  BANK17  BANK18  BANK19  BANK20  BANK21  BANK22  BANK23  BANK24  BANK25
      Params:         0       2       0       0       0       0       0       0       0       0       0       0       0       0       0       0       0       0       0       0       0       0       0       0       0       0       0
      Locals:         0       4       0       0       0       0       0       0       0       0       0       0       0       0       0       0       0       0       0       0       0       0       0       0       0       0       0
      Temps:          0       0       0       0       0       0       0       0       0       0       0       0       0       0       0       0       0       0       0       0       0       0       0       0       0       0       0
      Totals:         0       6       0       0       0       0       0       0       0       0       0       0       0       0       0       0       0       0       0       0       0       0       0       0       0       0       0
Total ram usage:        6 bytes
 Hardware stack levels used:    1
 Hardware stack levels required when called:   10
 This function calls:
		___lwmod
		_marquee
		_nullifyBadge_segDisplayForceUpdate
		_nullifyBadge_segDisplayPutStr
		_nullifyBadge_userLedsSet
 This function is called by:
		_menu_Main
 This function uses a non-reentrant model


 *************** function _matrix_secret_check *****************
 Defined at:
		line 93 in file "matrix_task.c"
 Parameters:    Size  Location     Type
  data            2    7[COMMON] PTR struct t_matrix_task
		 -> matrix_TaskData(31), secret_TaskData(14), locked_TaskData(14), slot_TaskData(40), 
		 -> menu_TaskData(14), flashy_TaskData(30), NULL(0), 
  buttonPresse    1    9[COMMON] unsigned char 
 Auto vars:     Size  Location     Type
  i               2    8[BANK0 ] unsigned int 
  hit_counter     6    0        unsigned char [6]
  currents_siz    2    5[BANK0 ] unsigned int 
  size            2    3[BANK0 ] unsigned int 
  inputs          1    7[BANK0 ] PTR unsigned char 
		 -> matrix_secret_inputs.inputs(20), matrix_secret_inputs(25), 
 Return value:  Size  Location     Type
                  1    wreg      unsigned char 
 Registers used:
		wreg, fsr0l, fsr0h, fsr1l, fsr1h, status,2, status,0, pclath, cstack
 Tracked objects:
		On entry : 
		On exit  : 
		Unchanged: 
 Data sizes:     COMMON   BANK0   BANK1   BANK2   BANK3   BANK4   BANK5   BANK6   BANK7   BANK8   BANK9  BANK10  BANK11  BANK12  BANK13  BANK14  BANK15  BANK16  BANK17  BANK18  BANK19  BANK20  BANK21  BANK22  BANK23  BANK24  BANK25
      Params:         3       0       0       0       0       0       0       0       0       0       0       0       0       0       0       0       0       0       0       0       0       0       0       0       0       0       0
      Locals:         0       7       0       0       0       0       0       0       0       0       0       0       0       0       0       0       0       0       0       0       0       0       0       0       0       0       0
      Temps:          0       3       0       0       0       0       0       0       0       0       0       0       0       0       0       0       0       0       0       0       0       0       0       0       0       0       0
      Totals:         3      10       0       0       0       0       0       0       0       0       0       0       0       0       0       0       0       0       0       0       0       0       0       0       0       0       0
Total ram usage:       13 bytes
 Hardware stack levels used:    1
 Hardware stack levels required when called:    5
 This function calls:
		___bmul
		_strlen
 This function is called by:
		_matrix_Main
 This function uses a non-reentrant model


 *************** function ___bmul *****************
 Defined at:
		line 4 in file "/Applications/microchip/xc8/v1.42/sources/common/Umul8.c"
 Parameters:    Size  Location     Type
  multiplier      1    wreg     unsigned char 
  multiplicand    1    1[COMMON] unsigned char 
 Auto vars:     Size  Location     Type
  multiplier      1    4[COMMON] unsigned char 
  product         1    3[COMMON] unsigned char 
 Return value:  Size  Location     Type
                  1    wreg      unsigned char 
 Registers used:
		wreg, status,2, status,0
 Tracked objects:
		On entry : 
		On exit  : 
		Unchanged: 
 Data sizes:     COMMON   BANK0   BANK1   BANK2   BANK3   BANK4   BANK5   BANK6   BANK7   BANK8   BANK9  BANK10  BANK11  BANK12  BANK13  BANK14  BANK15  BANK16  BANK17  BANK18  BANK19  BANK20  BANK21  BANK22  BANK23  BANK24  BANK25
      Params:         1       0       0       0       0       0       0       0       0       0       0       0       0       0       0       0       0       0       0       0       0       0       0       0       0       0       0
      Locals:         2       0       0       0       0       0       0       0       0       0       0       0       0       0       0       0       0       0       0       0       0       0       0       0       0       0       0
      Temps:          1       0       0       0       0       0       0       0       0       0       0       0       0       0       0       0       0       0       0       0       0       0       0       0       0       0       0
      Totals:         4       0       0       0       0       0       0       0       0       0       0       0       0       0       0       0       0       0       0       0       0       0       0       0       0       0       0
Total ram usage:        4 bytes
 Hardware stack levels used:    1
 Hardware stack levels required when called:    4
 This function calls:
		Nothing
 This function is called by:
		_matrix_secret_check
		_secret_check
 This function uses a non-reentrant model


 *************** function _matrix_display_option *****************
 Defined at:
		line 123 in file "matrix_task.c"
 Parameters:    Size  Location     Type
  data            2   44[BANK0 ] PTR struct t_matrix_task
		 -> matrix_TaskData(31), secret_TaskData(14), locked_TaskData(14), slot_TaskData(40), 
		 -> menu_TaskData(14), flashy_TaskData(30), NULL(0), 
 Auto vars:     Size  Location     Type
		None
 Return value:  Size  Location     Type
                  1    wreg      void 
 Registers used:
		wreg, fsr0l, fsr0h, fsr1l, fsr1h, status,2, status,0, pclath, cstack
 Tracked objects:
		On entry : 
		On exit  : 
		Unchanged: 
 Data sizes:     COMMON   BANK0   BANK1   BANK2   BANK3   BANK4   BANK5   BANK6   BANK7   BANK8   BANK9  BANK10  BANK11  BANK12  BANK13  BANK14  BANK15  BANK16  BANK17  BANK18  BANK19  BANK20  BANK21  BANK22  BANK23  BANK24  BANK25
      Params:         0       2       0       0       0       0       0       0       0       0       0       0       0       0       0       0       0       0       0       0       0       0       0       0       0       0       0
      Locals:         0       0       0       0       0       0       0       0       0       0       0       0       0       0       0       0       0       0       0       0       0       0       0       0       0       0       0
      Temps:          0       2       0       0       0       0       0       0       0       0       0       0       0       0       0       0       0       0       0       0       0       0       0       0       0       0       0
      Totals:         0       4       0       0       0       0       0       0       0       0       0       0       0       0       0       0       0       0       0       0       0       0       0       0       0       0       0
Total ram usage:        4 bytes
 Hardware stack levels used:    1
 Hardware stack levels required when called:   10
 This function calls:
		_marquee_speedy
 This function is called by:
		_matrix_Main
 This function uses a non-reentrant model


 *************** function _slot_Setup *****************
 Defined at:
		line 48 in file "slot_task.c"
 Parameters:    Size  Location     Type
  taskData        2   15[BANK0 ] PTR void 
		 -> matrix_TaskData(31), secret_TaskData(14), locked_TaskData(14), slot_TaskData(40), 
		 -> menu_TaskData(14), flashy_TaskData(30), NULL(0), 
 Auto vars:     Size  Location     Type
  data            2   20[BANK0 ] PTR struct t_slot_taskDa
		 -> matrix_TaskData(31), secret_TaskData(14), locked_TaskData(14), slot_TaskData(40), 
		 -> menu_TaskData(14), flashy_TaskData(30), NULL(0), 
 Return value:  Size  Location     Type
                  1    wreg      void 
 Registers used:
		wreg, fsr1l, fsr1h, status,2, status,0, pclath, cstack
 Tracked objects:
		On entry : 
		On exit  : 
		Unchanged: 
 Data sizes:     COMMON   BANK0   BANK1   BANK2   BANK3   BANK4   BANK5   BANK6   BANK7   BANK8   BANK9  BANK10  BANK11  BANK12  BANK13  BANK14  BANK15  BANK16  BANK17  BANK18  BANK19  BANK20  BANK21  BANK22  BANK23  BANK24  BANK25
      Params:         0       2       0       0       0       0       0       0       0       0       0       0       0       0       0       0       0       0       0       0       0       0       0       0       0       0       0
      Locals:         0       2       0       0       0       0       0       0       0       0       0       0       0       0       0       0       0       0       0       0       0       0       0       0       0       0       0
      Temps:          0       3       0       0       0       0       0       0       0       0       0       0       0       0       0       0       0       0       0       0       0       0       0       0       0       0       0
      Totals:         0       7       0       0       0       0       0       0       0       0       0       0       0       0       0       0       0       0       0       0       0       0       0       0       0       0       0
Total ram usage:        7 bytes
 Hardware stack levels used:    1
 Hardware stack levels required when called:    6
 This function calls:
		___lwmod
		_memset
		_rand
 This function is called by:
		_menu_Main
		_locked_Main
		_slot_Init
		_slot_Main
 This function uses a non-reentrant model


 *************** function _locked_unlock_leds *****************
 Defined at:
		line 37 in file "locked_task.c"
 Parameters:    Size  Location     Type
		None
 Auto vars:     Size  Location     Type
		None
 Return value:  Size  Location     Type
                  2  1237[None  ] unsigned int 
 Registers used:
		wreg, fsr1l, fsr1h, status,2, status,0
 Tracked objects:
		On entry : 
		On exit  : 
		Unchanged: 
 Data sizes:     COMMON   BANK0   BANK1   BANK2   BANK3   BANK4   BANK5   BANK6   BANK7   BANK8   BANK9  BANK10  BANK11  BANK12  BANK13  BANK14  BANK15  BANK16  BANK17  BANK18  BANK19  BANK20  BANK21  BANK22  BANK23  BANK24  BANK25
      Params:         0       0       0       0       0       0       0       0       0       0       0       0       0       0       0       0       0       0       0       0       0       0       0       0       0       0       0
      Locals:         0       0       0       0       0       0       0       0       0       0       0       0       0       0       0       0       0       0       0       0       0       0       0       0       0       0       0
      Temps:          2       0       0       0       0       0       0       0       0       0       0       0       0       0       0       0       0       0       0       0       0       0       0       0       0       0       0
      Totals:         2       0       0       0       0       0       0       0       0       0       0       0       0       0       0       0       0       0       0       0       0       0       0       0       0       0       0
Total ram usage:        2 bytes
 Hardware stack levels used:    1
 Hardware stack levels required when called:    4
 This function calls:
		Nothing
 This function is called by:
		_locked_Main
 This function uses a non-reentrant model


 *************** function _locked_lock_leds *****************
 Defined at:
		line 29 in file "locked_task.c"
 Parameters:    Size  Location     Type
		None
 Auto vars:     Size  Location     Type
  size            2    3[COMMON] unsigned int 
 Return value:  Size  Location     Type
                  2  1234[None  ] unsigned int 
 Registers used:
		wreg, fsr1l, fsr1h, status,2, status,0
 Tracked objects:
		On entry : 
		On exit  : 
		Unchanged: 
 Data sizes:     COMMON   BANK0   BANK1   BANK2   BANK3   BANK4   BANK5   BANK6   BANK7   BANK8   BANK9  BANK10  BANK11  BANK12  BANK13  BANK14  BANK15  BANK16  BANK17  BANK18  BANK19  BANK20  BANK21  BANK22  BANK23  BANK24  BANK25
      Params:         0       0       0       0       0       0       0       0       0       0       0       0       0       0       0       0       0       0       0       0       0       0       0       0       0       0       0
      Locals:         2       0       0       0       0       0       0       0       0       0       0       0       0       0       0       0       0       0       0       0       0       0       0       0       0       0       0
      Temps:          2       0       0       0       0       0       0       0       0       0       0       0       0       0       0       0       0       0       0       0       0       0       0       0       0       0       0
      Totals:         4       0       0       0       0       0       0       0       0       0       0       0       0       0       0       0       0       0       0       0       0       0       0       0       0       0       0
Total ram usage:        4 bytes
 Hardware stack levels used:    1
 Hardware stack levels required when called:    4
 This function calls:
		Nothing
 This function is called by:
		_locked_Init
		_locked_Main
 This function uses a non-reentrant model


 *************** function _locked_get_unlock_leds *****************
 Defined at:
		line 54 in file "locked_task.c"
 Parameters:    Size  Location     Type
		None
 Auto vars:     Size  Location     Type
  leds            2    3[COMMON] unsigned int 
 Return value:  Size  Location     Type
                  2    1[COMMON] unsigned int 
 Registers used:
		wreg, fsr1l, fsr1h, status,2, status,0
 Tracked objects:
		On entry : 
		On exit  : 
		Unchanged: 
 Data sizes:     COMMON   BANK0   BANK1   BANK2   BANK3   BANK4   BANK5   BANK6   BANK7   BANK8   BANK9  BANK10  BANK11  BANK12  BANK13  BANK14  BANK15  BANK16  BANK17  BANK18  BANK19  BANK20  BANK21  BANK22  BANK23  BANK24  BANK25
      Params:         2       0       0       0       0       0       0       0       0       0       0       0       0       0       0       0       0       0       0       0       0       0       0       0       0       0       0
      Locals:         2       0       0       0       0       0       0       0       0       0       0       0       0       0       0       0       0       0       0       0       0       0       0       0       0       0       0
      Temps:          0       0       0       0       0       0       0       0       0       0       0       0       0       0       0       0       0       0       0       0       0       0       0       0       0       0       0
      Totals:         4       0       0       0       0       0       0       0       0       0       0       0       0       0       0       0       0       0       0       0       0       0       0       0       0       0       0
Total ram usage:        4 bytes
 Hardware stack levels used:    1
 Hardware stack levels required when called:    4
 This function calls:
		Nothing
 This function is called by:
		_locked_Main
 This function uses a non-reentrant model


 *************** function _locked_get_lock_leds *****************
 Defined at:
		line 43 in file "locked_task.c"
 Parameters:    Size  Location     Type
		None
 Auto vars:     Size  Location     Type
  leds            2    7[COMMON] unsigned int 
  size            2    5[COMMON] unsigned int 
 Return value:  Size  Location     Type
                  2    1[COMMON] unsigned int 
 Registers used:
		wreg, fsr1l, fsr1h, status,2, status,0
 Tracked objects:
		On entry : 
		On exit  : 
		Unchanged: 
 Data sizes:     COMMON   BANK0   BANK1   BANK2   BANK3   BANK4   BANK5   BANK6   BANK7   BANK8   BANK9  BANK10  BANK11  BANK12  BANK13  BANK14  BANK15  BANK16  BANK17  BANK18  BANK19  BANK20  BANK21  BANK22  BANK23  BANK24  BANK25
      Params:         2       0       0       0       0       0       0       0       0       0       0       0       0       0       0       0       0       0       0       0       0       0       0       0       0       0       0
      Locals:         4       0       0       0       0       0       0       0       0       0       0       0       0       0       0       0       0       0       0       0       0       0       0       0       0       0       0
      Temps:          2       0       0       0       0       0       0       0       0       0       0       0       0       0       0       0       0       0       0       0       0       0       0       0       0       0       0
      Totals:         8       0       0       0       0       0       0       0       0       0       0       0       0       0       0       0       0       0       0       0       0       0       0       0       0       0       0
Total ram usage:        8 bytes
 Hardware stack levels used:    1
 Hardware stack levels required when called:    4
 This function calls:
		Nothing
 This function is called by:
		_locked_Main
 This function uses a non-reentrant model


 *************** function _locked_clear *****************
 Defined at:
		line 186 in file "locked_task.c"
 Parameters:    Size  Location     Type
  data            2   25[BANK0 ] PTR struct t_locked_task
		 -> matrix_TaskData(31), secret_TaskData(14), locked_TaskData(14), slot_TaskData(40), 
		 -> menu_TaskData(14), flashy_TaskData(30), NULL(0), 
 Auto vars:     Size  Location     Type
		None
 Return value:  Size  Location     Type
                  1    wreg      void 
 Registers used:
		wreg, fsr0l, fsr0h, fsr1l, fsr1h, status,2, status,0, pclath, cstack
 Tracked objects:
		On entry : 
		On exit  : 
		Unchanged: 
 Data sizes:     COMMON   BANK0   BANK1   BANK2   BANK3   BANK4   BANK5   BANK6   BANK7   BANK8   BANK9  BANK10  BANK11  BANK12  BANK13  BANK14  BANK15  BANK16  BANK17  BANK18  BANK19  BANK20  BANK21  BANK22  BANK23  BANK24  BANK25
      Params:         0       2       0       0       0       0       0       0       0       0       0       0       0       0       0       0       0       0       0       0       0       0       0       0       0       0       0
      Locals:         0       0       0       0       0       0       0       0       0       0       0       0       0       0       0       0       0       0       0       0       0       0       0       0       0       0       0
      Temps:          0       0       0       0       0       0       0       0       0       0       0       0       0       0       0       0       0       0       0       0       0       0       0       0       0       0       0
      Totals:         0       2       0       0       0       0       0       0       0       0       0       0       0       0       0       0       0       0       0       0       0       0       0       0       0       0       0
Total ram usage:        2 bytes
 Hardware stack levels used:    1
 Hardware stack levels required when called:   10
 This function calls:
		_nullifyBadge_segDisplayErase
		_nullifyBadge_userLedsClr
 This function is called by:
		_locked_Main
 This function uses a non-reentrant model


 *************** function _nullifyBadge_userLedsClr *****************
 Defined at:
		line 177 in file "nullifyBadge.c"
 Parameters:    Size  Location     Type
  badge           1    wreg     PTR struct t_nullifyBadg
		 -> badge_inst(18), 
 Auto vars:     Size  Location     Type
  badge           1   11[BANK0 ] PTR struct t_nullifyBadg
		 -> badge_inst(18), 
 Return value:  Size  Location     Type
                  1    wreg      void 
 Registers used:
		wreg, fsr1l, fsr1h, status,2, status,0, pclath, cstack
 Tracked objects:
		On entry : 
		On exit  : 
		Unchanged: 
 Data sizes:     COMMON   BANK0   BANK1   BANK2   BANK3   BANK4   BANK5   BANK6   BANK7   BANK8   BANK9  BANK10  BANK11  BANK12  BANK13  BANK14  BANK15  BANK16  BANK17  BANK18  BANK19  BANK20  BANK21  BANK22  BANK23  BANK24  BANK25
      Params:         0       0       0       0       0       0       0       0       0       0       0       0       0       0       0       0       0       0       0       0       0       0       0       0       0       0       0
      Locals:         0       1       0       0       0       0       0       0       0       0       0       0       0       0       0       0       0       0       0       0       0       0       0       0       0       0       0
      Temps:          0       0       0       0       0       0       0       0       0       0       0       0       0       0       0       0       0       0       0       0       0       0       0       0       0       0       0
      Totals:         0       1       0       0       0       0       0       0       0       0       0       0       0       0       0       0       0       0       0       0       0       0       0       0       0       0       0
Total ram usage:        1 bytes
 Hardware stack levels used:    1
 Hardware stack levels required when called:    8
 This function calls:
		_displayL2_ClrUserLeds
 This function is called by:
		_menu_Init
		_menu_clear
		_menu_Exit
		_flashy_Init
		_flashy_Exit
		_locked_Init
		_locked_clear
		_locked_Exit
		_secret_Init
		_secret_Exit
		_slot_Init
		_slot_Exit
		_matrix_Init
		_matrix_Exit
 This function uses a non-reentrant model


 *************** function _displayL2_ClrUserLeds *****************
 Defined at:
		line 94 in file "nullifyBadge_displayL2.c"
 Parameters:    Size  Location     Type
  display         1    wreg     PTR struct t_nullifyDisp
		 -> badge_inst(18), 
 Auto vars:     Size  Location     Type
  display         1   11[COMMON] PTR struct t_nullifyDisp
		 -> badge_inst(18), 
 Return value:  Size  Location     Type
                  1    wreg      void 
 Registers used:
		wreg, fsr1l, fsr1h, status,2, status,0, pclath, cstack
 Tracked objects:
		On entry : 
		On exit  : 
		Unchanged: 
 Data sizes:     COMMON   BANK0   BANK1   BANK2   BANK3   BANK4   BANK5   BANK6   BANK7   BANK8   BANK9  BANK10  BANK11  BANK12  BANK13  BANK14  BANK15  BANK16  BANK17  BANK18  BANK19  BANK20  BANK21  BANK22  BANK23  BANK24  BANK25
      Params:         0       0       0       0       0       0       0       0       0       0       0       0       0       0       0       0       0       0       0       0       0       0       0       0       0       0       0
      Locals:         1       0       0       0       0       0       0       0       0       0       0       0       0       0       0       0       0       0       0       0       0       0       0       0       0       0       0
      Temps:          0       0       0       0       0       0       0       0       0       0       0       0       0       0       0       0       0       0       0       0       0       0       0       0       0       0       0
      Totals:         1       0       0       0       0       0       0       0       0       0       0       0       0       0       0       0       0       0       0       0       0       0       0       0       0       0       0
Total ram usage:        1 bytes
 Hardware stack levels used:    1
 Hardware stack levels required when called:    7
 This function calls:
		_displayL1_SetUserLed
		_displayL1_Update
 This function is called by:
		_nullifyBadge_userLedsClr
 This function uses a non-reentrant model


 *************** function _nullifyBadge_segDisplayErase *****************
 Defined at:
		line 123 in file "nullifyBadge.c"
 Parameters:    Size  Location     Type
  badge           1    wreg     PTR struct t_nullifyBadg
		 -> badge_inst(18), 
 Auto vars:     Size  Location     Type
  badge           1   24[BANK0 ] PTR struct t_nullifyBadg
		 -> badge_inst(18), 
 Return value:  Size  Location     Type
                  1    wreg      void 
 Registers used:
		wreg, fsr0l, fsr0h, fsr1l, fsr1h, status,2, status,0, pclath, cstack
 Tracked objects:
		On entry : 
		On exit  : 
		Unchanged: 
 Data sizes:     COMMON   BANK0   BANK1   BANK2   BANK3   BANK4   BANK5   BANK6   BANK7   BANK8   BANK9  BANK10  BANK11  BANK12  BANK13  BANK14  BANK15  BANK16  BANK17  BANK18  BANK19  BANK20  BANK21  BANK22  BANK23  BANK24  BANK25
      Params:         0       0       0       0       0       0       0       0       0       0       0       0       0       0       0       0       0       0       0       0       0       0       0       0       0       0       0
      Locals:         0       1       0       0       0       0       0       0       0       0       0       0       0       0       0       0       0       0       0       0       0       0       0       0       0       0       0
      Temps:          0       0       0       0       0       0       0       0       0       0       0       0       0       0       0       0       0       0       0       0       0       0       0       0       0       0       0
      Totals:         0       1       0       0       0       0       0       0       0       0       0       0       0       0       0       0       0       0       0       0       0       0       0       0       0       0       0
Total ram usage:        1 bytes
 Hardware stack levels used:    1
 Hardware stack levels required when called:    9
 This function calls:
		_displayL2_EraseSegDisplay
 This function is called by:
		_menu_Init
		_menu_clear
		_menu_Exit
		_flashy_Init
		_flashy_Exit
		_locked_Init
		_locked_clear
		_locked_Exit
		_secret_Init
		_secret_Exit
		_slot_Init
		_slot_Exit
		_matrix_Init
		_matrix_Exit
		_fadeDisplay_Init
		_fadeDisplay_Exit
 This function uses a non-reentrant model


 *************** function _displayL2_EraseSegDisplay *****************
 Defined at:
		line 83 in file "nullifyBadge_displayL2.c"
 Parameters:    Size  Location     Type
  display         1    wreg     PTR struct t_nullifyDisp
		 -> badge_inst(18), 
 Auto vars:     Size  Location     Type
  display         1   23[BANK0 ] PTR struct t_nullifyDisp
		 -> badge_inst(18), 
 Return value:  Size  Location     Type
                  1    wreg      void 
 Registers used:
		wreg, fsr0l, fsr0h, fsr1l, fsr1h, status,2, status,0, pclath, cstack
 Tracked objects:
		On entry : 
		On exit  : 
		Unchanged: 
 Data sizes:     COMMON   BANK0   BANK1   BANK2   BANK3   BANK4   BANK5   BANK6   BANK7   BANK8   BANK9  BANK10  BANK11  BANK12  BANK13  BANK14  BANK15  BANK16  BANK17  BANK18  BANK19  BANK20  BANK21  BANK22  BANK23  BANK24  BANK25
      Params:         0       0       0       0       0       0       0       0       0       0       0       0       0       0       0       0       0       0       0       0       0       0       0       0       0       0       0
      Locals:         0       1       0       0       0       0       0       0       0       0       0       0       0       0       0       0       0       0       0       0       0       0       0       0       0       0       0
      Temps:          0       0       0       0       0       0       0       0       0       0       0       0       0       0       0       0       0       0       0       0       0       0       0       0       0       0       0
      Totals:         0       1       0       0       0       0       0       0       0       0       0       0       0       0       0       0       0       0       0       0       0       0       0       0       0       0       0
Total ram usage:        1 bytes
 Hardware stack levels used:    1
 Hardware stack levels required when called:    8
 This function calls:
		_displayL1_Update
		_displayL2_PutStr
 This function is called by:
		_nullifyBadge_segDisplayErase
 This function uses a non-reentrant model


 *************** function _sprintf *****************
 Defined at:
		line 492 in file "/Applications/microchip/xc8/v1.42/sources/common/doprnt.c"
 Parameters:    Size  Location     Type
  sp              2   15[BANK0 ] PTR unsigned char 
		 -> flashy_Main@hit_counter(6), matrix_TaskData(31), secret_TaskData(14), locked_TaskData(14), 
		 -> slot_TaskData(40), menu_TaskData(14), flashy_TaskData(30), NULL(0), 
  f               2   17[BANK0 ] PTR const unsigned char 
		 -> STR_69(3), STR_68(9), STR_67(9), STR_66(9), 
		 -> STR_65(9), STR_64(9), STR_41(4), 
 Auto vars:     Size  Location     Type
  tmpval          4    0        struct .
  width           2   40[BANK0 ] int 
  len             2   38[BANK0 ] unsigned int 
  val             2   36[BANK0 ] unsigned int 
  cp              2   33[BANK0 ] PTR const unsigned char 
		 -> STR_83(7), sprintf@c(1), STR_63(9), STR_62(13), 
		 -> STR_61(12), STR_60(8), STR_59(11), STR_58(11), 
		 -> STR_57(9), STR_56(8), STR_55(8), 
  c               1   42[BANK0 ] char 
  ap              1   35[BANK0 ] PTR void [1]
		 -> ?_sprintf(2), 
  flag            1   32[BANK0 ] unsigned char 
  prec            1   31[BANK0 ] char 
 Return value:  Size  Location     Type
                  2   15[BANK0 ] int 
 Registers used:
		wreg, fsr0l, fsr0h, fsr1l, fsr1h, status,2, status,0, pclath, cstack
 Tracked objects:
		On entry : 
		On exit  : 
		Unchanged: 
 Data sizes:     COMMON   BANK0   BANK1   BANK2   BANK3   BANK4   BANK5   BANK6   BANK7   BANK8   BANK9  BANK10  BANK11  BANK12  BANK13  BANK14  BANK15  BANK16  BANK17  BANK18  BANK19  BANK20  BANK21  BANK22  BANK23  BANK24  BANK25
      Params:         0      12       0       0       0       0       0       0       0       0       0       0       0       0       0       0       0       0       0       0       0       0       0       0       0       0       0
      Locals:         0      12       0       0       0       0       0       0       0       0       0       0       0       0       0       0       0       0       0       0       0       0       0       0       0       0       0
      Temps:          0       4       0       0       0       0       0       0       0       0       0       0       0       0       0       0       0       0       0       0       0       0       0       0       0       0       0
      Totals:         0      28       0       0       0       0       0       0       0       0       0       0       0       0       0       0       0       0       0       0       0       0       0       0       0       0       0
Total ram usage:       28 bytes
 Hardware stack levels used:    1
 Hardware stack levels required when called:    5
 This function calls:
		___lwdiv
		___lwmod
		___wmul
		_isdigit
 This function is called by:
		_flashy_Main
		_slot_Main
 This function uses a non-reentrant model


 *************** function _isdigit *****************
 Defined at:
		line 8 in file "/Applications/microchip/xc8/v1.42/sources/common/isdigit.c"
 Parameters:    Size  Location     Type
  c               1    wreg     unsigned char 
 Auto vars:     Size  Location     Type
  c               1    2[COMMON] unsigned char 
 Return value:  Size  Location     Type
		None               void
 Registers used:
		wreg, status,2, status,0
 Tracked objects:
		On entry : 
		On exit  : 
		Unchanged: 
 Data sizes:     COMMON   BANK0   BANK1   BANK2   BANK3   BANK4   BANK5   BANK6   BANK7   BANK8   BANK9  BANK10  BANK11  BANK12  BANK13  BANK14  BANK15  BANK16  BANK17  BANK18  BANK19  BANK20  BANK21  BANK22  BANK23  BANK24  BANK25
      Params:         0       0       0       0       0       0       0       0       0       0       0       0       0       0       0       0       0       0       0       0       0       0       0       0       0       0       0
      Locals:         2       0       0       0       0       0       0       0       0       0       0       0       0       0       0       0       0       0       0       0       0       0       0       0       0       0       0
      Temps:          0       0       0       0       0       0       0       0       0       0       0       0       0       0       0       0       0       0       0       0       0       0       0       0       0       0       0
      Totals:         2       0       0       0       0       0       0       0       0       0       0       0       0       0       0       0       0       0       0       0       0       0       0       0       0       0       0
Total ram usage:        2 bytes
 Hardware stack levels used:    1
 Hardware stack levels required when called:    4
 This function calls:
		Nothing
 This function is called by:
		_sprintf
 This function uses a non-reentrant model


 *************** function ___wmul *****************
 Defined at:
		line 15 in file "/Applications/microchip/xc8/v1.42/sources/common/Umul16.c"
 Parameters:    Size  Location     Type
  multiplier      2    1[COMMON] unsigned int 
  multiplicand    2    3[COMMON] unsigned int 
 Auto vars:     Size  Location     Type
  product         2    5[COMMON] unsigned int 
 Return value:  Size  Location     Type
                  2    1[COMMON] unsigned int 
 Registers used:
		wreg, status,2, status,0
 Tracked objects:
		On entry : 
		On exit  : 
		Unchanged: 
 Data sizes:     COMMON   BANK0   BANK1   BANK2   BANK3   BANK4   BANK5   BANK6   BANK7   BANK8   BANK9  BANK10  BANK11  BANK12  BANK13  BANK14  BANK15  BANK16  BANK17  BANK18  BANK19  BANK20  BANK21  BANK22  BANK23  BANK24  BANK25
      Params:         4       0       0       0       0       0       0       0       0       0       0       0       0       0       0       0       0       0       0       0       0       0       0       0       0       0       0
      Locals:         2       0       0       0       0       0       0       0       0       0       0       0       0       0       0       0       0       0       0       0       0       0       0       0       0       0       0
      Temps:          0       0       0       0       0       0       0       0       0       0       0       0       0       0       0       0       0       0       0       0       0       0       0       0       0       0       0
      Totals:         6       0       0       0       0       0       0       0       0       0       0       0       0       0       0       0       0       0       0       0       0       0       0       0       0       0       0
Total ram usage:        6 bytes
 Hardware stack levels used:    1
 Hardware stack levels required when called:    4
 This function calls:
		Nothing
 This function is called by:
		_secret_check
		_matrix_secret_check
		_sprintf
 This function uses a non-reentrant model


 *************** function _nullifyBadge_irTxSet *****************
 Defined at:
		line 264 in file "nullifyBadge.c"
 Parameters:    Size  Location     Type
		None
 Auto vars:     Size  Location     Type
		None
 Return value:  Size  Location     Type
                  1    wreg      void 
 Registers used:
		None
 Tracked objects:
		On entry : 
		On exit  : 
		Unchanged: 
 Data sizes:     COMMON   BANK0   BANK1   BANK2   BANK3   BANK4   BANK5   BANK6   BANK7   BANK8   BANK9  BANK10  BANK11  BANK12  BANK13  BANK14  BANK15  BANK16  BANK17  BANK18  BANK19  BANK20  BANK21  BANK22  BANK23  BANK24  BANK25
      Params:         0       0       0       0       0       0       0       0       0       0       0       0       0       0       0       0       0       0       0       0       0       0       0       0       0       0       0
      Locals:         0       0       0       0       0       0       0       0       0       0       0       0       0       0       0       0       0       0       0       0       0       0       0       0       0       0       0
      Temps:          0       0       0       0       0       0       0       0       0       0       0       0       0       0       0       0       0       0       0       0       0       0       0       0       0       0       0
      Totals:         0       0       0       0       0       0       0       0       0       0       0       0       0       0       0       0       0       0       0       0       0       0       0       0       0       0       0
Total ram usage:        0 bytes
 Hardware stack levels used:    1
 Hardware stack levels required when called:    4
 This function calls:
		Nothing
 This function is called by:
		_flashy_Main
 This function uses a non-reentrant model


 *************** function _nullifyBadge_irTxRelease *****************
 Defined at:
		line 254 in file "nullifyBadge.c"
 Parameters:    Size  Location     Type
  badge           1    wreg     PTR struct t_nullifyBadg
		 -> badge_inst(18), 
 Auto vars:     Size  Location     Type
  badge           1    2[COMMON] PTR struct t_nullifyBadg
		 -> badge_inst(18), 
 Return value:  Size  Location     Type
                  1    wreg      void 
 Registers used:
		wreg, fsr1l, fsr1h, status,2, status,0
 Tracked objects:
		On entry : 
		On exit  : 
		Unchanged: 
 Data sizes:     COMMON   BANK0   BANK1   BANK2   BANK3   BANK4   BANK5   BANK6   BANK7   BANK8   BANK9  BANK10  BANK11  BANK12  BANK13  BANK14  BANK15  BANK16  BANK17  BANK18  BANK19  BANK20  BANK21  BANK22  BANK23  BANK24  BANK25
      Params:         0       0       0       0       0       0       0       0       0       0       0       0       0       0       0       0       0       0       0       0       0       0       0       0       0       0       0
      Locals:         1       0       0       0       0       0       0       0       0       0       0       0       0       0       0       0       0       0       0       0       0       0       0       0       0       0       0
      Temps:          1       0       0       0       0       0       0       0       0       0       0       0       0       0       0       0       0       0       0       0       0       0       0       0       0       0       0
      Totals:         2       0       0       0       0       0       0       0       0       0       0       0       0       0       0       0       0       0       0       0       0       0       0       0       0       0       0
Total ram usage:        2 bytes
 Hardware stack levels used:    1
 Hardware stack levels required when called:    4
 This function calls:
		Nothing
 This function is called by:
		_flashy_Main
 This function uses a non-reentrant model


 *************** function _nullifyBadge_irTxRegister *****************
 Defined at:
		line 242 in file "nullifyBadge.c"
 Parameters:    Size  Location     Type
  badge           1    wreg     PTR struct t_nullifyBadg
		 -> badge_inst(18), 
 Auto vars:     Size  Location     Type
  badge           1    1[COMMON] PTR struct t_nullifyBadg
		 -> badge_inst(18), 
 Return value:  Size  Location     Type
                  1    wreg      char 
 Registers used:
		wreg, fsr1l, fsr1h, status,2, status,0
 Tracked objects:
		On entry : 
		On exit  : 
		Unchanged: 
 Data sizes:     COMMON   BANK0   BANK1   BANK2   BANK3   BANK4   BANK5   BANK6   BANK7   BANK8   BANK9  BANK10  BANK11  BANK12  BANK13  BANK14  BANK15  BANK16  BANK17  BANK18  BANK19  BANK20  BANK21  BANK22  BANK23  BANK24  BANK25
      Params:         0       0       0       0       0       0       0       0       0       0       0       0       0       0       0       0       0       0       0       0       0       0       0       0       0       0       0
      Locals:         1       0       0       0       0       0       0       0       0       0       0       0       0       0       0       0       0       0       0       0       0       0       0       0       0       0       0
      Temps:          0       0       0       0       0       0       0       0       0       0       0       0       0       0       0       0       0       0       0       0       0       0       0       0       0       0       0
      Totals:         1       0       0       0       0       0       0       0       0       0       0       0       0       0       0       0       0       0       0       0       0       0       0       0       0       0       0
Total ram usage:        1 bytes
 Hardware stack levels used:    1
 Hardware stack levels required when called:    4
 This function calls:
		Nothing
 This function is called by:
		_flashy_Main
 This function uses a non-reentrant model


 *************** function _nullifyBadge_irTxClr *****************
 Defined at:
		line 270 in file "nullifyBadge.c"
 Parameters:    Size  Location     Type
		None
 Auto vars:     Size  Location     Type
		None
 Return value:  Size  Location     Type
                  1    wreg      void 
 Registers used:
		None
 Tracked objects:
		On entry : 
		On exit  : 
		Unchanged: 
 Data sizes:     COMMON   BANK0   BANK1   BANK2   BANK3   BANK4   BANK5   BANK6   BANK7   BANK8   BANK9  BANK10  BANK11  BANK12  BANK13  BANK14  BANK15  BANK16  BANK17  BANK18  BANK19  BANK20  BANK21  BANK22  BANK23  BANK24  BANK25
      Params:         0       0       0       0       0       0       0       0       0       0       0       0       0       0       0       0       0       0       0       0       0       0       0       0       0       0       0
      Locals:         0       0       0       0       0       0       0       0       0       0       0       0       0       0       0       0       0       0       0       0       0       0       0       0       0       0       0
      Temps:          0       0       0       0       0       0       0       0       0       0       0       0       0       0       0       0       0       0       0       0       0       0       0       0       0       0       0
      Totals:         0       0       0       0       0       0       0       0       0       0       0       0       0       0       0       0       0       0       0       0       0       0       0       0       0       0       0
Total ram usage:        0 bytes
 Hardware stack levels used:    1
 Hardware stack levels required when called:    4
 This function calls:
		Nothing
 This function is called by:
		_flashy_Main
 This function uses a non-reentrant model


 *************** function _nullifyBadge_irGet *****************
 Defined at:
		line 232 in file "nullifyBadge.c"
 Parameters:    Size  Location     Type
		None
 Auto vars:     Size  Location     Type
		None
 Return value:  Size  Location     Type
                  1    wreg      unsigned char 
 Registers used:
		wreg, status,2, status,0
 Tracked objects:
		On entry : 
		On exit  : 
		Unchanged: 
 Data sizes:     COMMON   BANK0   BANK1   BANK2   BANK3   BANK4   BANK5   BANK6   BANK7   BANK8   BANK9  BANK10  BANK11  BANK12  BANK13  BANK14  BANK15  BANK16  BANK17  BANK18  BANK19  BANK20  BANK21  BANK22  BANK23  BANK24  BANK25
      Params:         0       0       0       0       0       0       0       0       0       0       0       0       0       0       0       0       0       0       0       0       0       0       0       0       0       0       0
      Locals:         0       0       0       0       0       0       0       0       0       0       0       0       0       0       0       0       0       0       0       0       0       0       0       0       0       0       0
      Temps:          0       0       0       0       0       0       0       0       0       0       0       0       0       0       0       0       0       0       0       0       0       0       0       0       0       0       0
      Totals:         0       0       0       0       0       0       0       0       0       0       0       0       0       0       0       0       0       0       0       0       0       0       0       0       0       0       0
Total ram usage:        0 bytes
 Hardware stack levels used:    1
 Hardware stack levels required when called:    4
 This function calls:
		Nothing
 This function is called by:
		_flashy_Main
 This function uses a non-reentrant model


 *************** function _nullifyBadge_buttonsGet *****************
 Defined at:
		line 187 in file "nullifyBadge.c"
 Parameters:    Size  Location     Type
		None
 Auto vars:     Size  Location     Type
  retVal          1    3[COMMON] unsigned char 
 Return value:  Size  Location     Type
                  1    wreg      unsigned char 
 Registers used:
		wreg, status,2, status,0
 Tracked objects:
		On entry : 
		On exit  : 
		Unchanged: 
 Data sizes:     COMMON   BANK0   BANK1   BANK2   BANK3   BANK4   BANK5   BANK6   BANK7   BANK8   BANK9  BANK10  BANK11  BANK12  BANK13  BANK14  BANK15  BANK16  BANK17  BANK18  BANK19  BANK20  BANK21  BANK22  BANK23  BANK24  BANK25
      Params:         0       0       0       0       0       0       0       0       0       0       0       0       0       0       0       0       0       0       0       0       0       0       0       0       0       0       0
      Locals:         1       0       0       0       0       0       0       0       0       0       0       0       0       0       0       0       0       0       0       0       0       0       0       0       0       0       0
      Temps:          2       0       0       0       0       0       0       0       0       0       0       0       0       0       0       0       0       0       0       0       0       0       0       0       0       0       0
      Totals:         3       0       0       0       0       0       0       0       0       0       0       0       0       0       0       0       0       0       0       0       0       0       0       0       0       0       0
Total ram usage:        3 bytes
 Hardware stack levels used:    1
 Hardware stack levels required when called:    4
 This function calls:
		Nothing
 This function is called by:
		_menu_Main
		_flashy_Main
		_locked_Main
		_secret_Main
		_slot_Main
		_matrix_Main
 This function uses a non-reentrant model


 *************** function _let_alternate *****************
 Defined at:
		line 194 in file "main.c"
 Parameters:    Size  Location     Type
  count           2   16[BANK0 ] unsigned int 
 Auto vars:     Size  Location     Type
		None
 Return value:  Size  Location     Type
                  1    wreg      void 
 Registers used:
		wreg, fsr1l, fsr1h, status,2, status,0, pclath, cstack
 Tracked objects:
		On entry : 
		On exit  : 
		Unchanged: 
 Data sizes:     COMMON   BANK0   BANK1   BANK2   BANK3   BANK4   BANK5   BANK6   BANK7   BANK8   BANK9  BANK10  BANK11  BANK12  BANK13  BANK14  BANK15  BANK16  BANK17  BANK18  BANK19  BANK20  BANK21  BANK22  BANK23  BANK24  BANK25
      Params:         0       2       0       0       0       0       0       0       0       0       0       0       0       0       0       0       0       0       0       0       0       0       0       0       0       0       0
      Locals:         0       0       0       0       0       0       0       0       0       0       0       0       0       0       0       0       0       0       0       0       0       0       0       0       0       0       0
      Temps:          0       0       0       0       0       0       0       0       0       0       0       0       0       0       0       0       0       0       0       0       0       0       0       0       0       0       0
      Totals:         0       2       0       0       0       0       0       0       0       0       0       0       0       0       0       0       0       0       0       0       0       0       0       0       0       0       0
Total ram usage:        2 bytes
 Hardware stack levels used:    1
 Hardware stack levels required when called:    9
 This function calls:
		_nullifyBadge_userLedsSet
 This function is called by:
		_flashy_Main
 This function uses a non-reentrant model


 *************** function _led_roundabout *****************
 Defined at:
		line 159 in file "main.c"
 Parameters:    Size  Location     Type
  counter         2   16[BANK0 ] unsigned int 
 Auto vars:     Size  Location     Type
  size            2   22[BANK0 ] unsigned int 
  leds            2   20[BANK0 ] unsigned int 
 Return value:  Size  Location     Type
                  1    wreg      void 
 Registers used:
		wreg, fsr1l, fsr1h, status,2, status,0, pclath, cstack
 Tracked objects:
		On entry : 
		On exit  : 
		Unchanged: 
 Data sizes:     COMMON   BANK0   BANK1   BANK2   BANK3   BANK4   BANK5   BANK6   BANK7   BANK8   BANK9  BANK10  BANK11  BANK12  BANK13  BANK14  BANK15  BANK16  BANK17  BANK18  BANK19  BANK20  BANK21  BANK22  BANK23  BANK24  BANK25
      Params:         0       2       0       0       0       0       0       0       0       0       0       0       0       0       0       0       0       0       0       0       0       0       0       0       0       0       0
      Locals:         0       4       0       0       0       0       0       0       0       0       0       0       0       0       0       0       0       0       0       0       0       0       0       0       0       0       0
      Temps:          0       2       0       0       0       0       0       0       0       0       0       0       0       0       0       0       0       0       0       0       0       0       0       0       0       0       0
      Totals:         0       8       0       0       0       0       0       0       0       0       0       0       0       0       0       0       0       0       0       0       0       0       0       0       0       0       0
Total ram usage:        8 bytes
 Hardware stack levels used:    1
 Hardware stack levels required when called:    9
 This function calls:
		___lwmod
		_nullifyBadge_userLedsSet
 This function is called by:
		_flashy_Main
 This function uses a non-reentrant model


 *************** function _led_rand *****************
 Defined at:
		line 179 in file "main.c"
 Parameters:    Size  Location     Type
		None
 Auto vars:     Size  Location     Type
  spark           2   27[BANK0 ] unsigned int 
 Return value:  Size  Location     Type
                  1    wreg      void 
 Registers used:
		wreg, fsr1l, fsr1h, status,2, status,0, pclath, cstack
 Tracked objects:
		On entry : 
		On exit  : 
		Unchanged: 
 Data sizes:     COMMON   BANK0   BANK1   BANK2   BANK3   BANK4   BANK5   BANK6   BANK7   BANK8   BANK9  BANK10  BANK11  BANK12  BANK13  BANK14  BANK15  BANK16  BANK17  BANK18  BANK19  BANK20  BANK21  BANK22  BANK23  BANK24  BANK25
      Params:         0       0       0       0       0       0       0       0       0       0       0       0       0       0       0       0       0       0       0       0       0       0       0       0       0       0       0
      Locals:         0       2       0       0       0       0       0       0       0       0       0       0       0       0       0       0       0       0       0       0       0       0       0       0       0       0       0
      Temps:          0       8       0       0       0       0       0       0       0       0       0       0       0       0       0       0       0       0       0       0       0       0       0       0       0       0       0
      Totals:         0      10       0       0       0       0       0       0       0       0       0       0       0       0       0       0       0       0       0       0       0       0       0       0       0       0       0
Total ram usage:       10 bytes
 Hardware stack levels used:    1
 Hardware stack levels required when called:    9
 This function calls:
		___almod
		_nullifyBadge_userLedsSet
		_rand
 This function is called by:
		_flashy_Main
		_slot_Finished_Animation
 This function uses a non-reentrant model


 *************** function _rand *****************
 Defined at:
		line 12 in file "/Applications/microchip/xc8/v1.42/sources/common/rand.c"
 Parameters:    Size  Location     Type
		None
 Auto vars:     Size  Location     Type
		None
 Return value:  Size  Location     Type
                  2    4[BANK0 ] int 
 Registers used:
		wreg, status,2, status,0, pclath, cstack
 Tracked objects:
		On entry : 
		On exit  : 
		Unchanged: 
 Data sizes:     COMMON   BANK0   BANK1   BANK2   BANK3   BANK4   BANK5   BANK6   BANK7   BANK8   BANK9  BANK10  BANK11  BANK12  BANK13  BANK14  BANK15  BANK16  BANK17  BANK18  BANK19  BANK20  BANK21  BANK22  BANK23  BANK24  BANK25
      Params:         0       2       0       0       0       0       0       0       0       0       0       0       0       0       0       0       0       0       0       0       0       0       0       0       0       0       0
      Locals:         0       0       0       0       0       0       0       0       0       0       0       0       0       0       0       0       0       0       0       0       0       0       0       0       0       0       0
      Temps:          0       5       0       0       0       0       0       0       0       0       0       0       0       0       0       0       0       0       0       0       0       0       0       0       0       0       0
      Totals:         0       7       0       0       0       0       0       0       0       0       0       0       0       0       0       0       0       0       0       0       0       0       0       0       0       0       0
Total ram usage:        7 bytes
 Hardware stack levels used:    1
 Hardware stack levels required when called:    5
 This function calls:
		___lmul
 This function is called by:
		_led_rand
		_slot_Setup
		_slot_Main
 This function uses a non-reentrant model


 *************** function ___lmul *****************
 Defined at:
		line 15 in file "/Applications/microchip/xc8/v1.42/sources/common/Umul32.c"
 Parameters:    Size  Location     Type
  multiplier      4    1[COMMON] unsigned long 
  multiplicand    4    5[COMMON] unsigned long 
 Auto vars:     Size  Location     Type
  product         4    0[BANK0 ] unsigned long 
 Return value:  Size  Location     Type
                  4    1[COMMON] unsigned long 
 Registers used:
		wreg, status,2, status,0
 Tracked objects:
		On entry : 
		On exit  : 
		Unchanged: 
 Data sizes:     COMMON   BANK0   BANK1   BANK2   BANK3   BANK4   BANK5   BANK6   BANK7   BANK8   BANK9  BANK10  BANK11  BANK12  BANK13  BANK14  BANK15  BANK16  BANK17  BANK18  BANK19  BANK20  BANK21  BANK22  BANK23  BANK24  BANK25
      Params:         8       0       0       0       0       0       0       0       0       0       0       0       0       0       0       0       0       0       0       0       0       0       0       0       0       0       0
      Locals:         0       4       0       0       0       0       0       0       0       0       0       0       0       0       0       0       0       0       0       0       0       0       0       0       0       0       0
      Temps:          0       0       0       0       0       0       0       0       0       0       0       0       0       0       0       0       0       0       0       0       0       0       0       0       0       0       0
      Totals:         8       4       0       0       0       0       0       0       0       0       0       0       0       0       0       0       0       0       0       0       0       0       0       0       0       0       0
Total ram usage:       12 bytes
 Hardware stack levels used:    1
 Hardware stack levels required when called:    4
 This function calls:
		Nothing
 This function is called by:
		_rand
 This function uses a non-reentrant model


 *************** function ___almod *****************
 Defined at:
		line 5 in file "/Applications/microchip/xc8/v1.42/sources/common/almod.c"
 Parameters:    Size  Location     Type
  divisor         4   11[BANK0 ] long 
  dividend        4   15[BANK0 ] long 
 Auto vars:     Size  Location     Type
  sign            1   11[COMMON] unsigned char 
  counter         1   10[COMMON] unsigned char 
 Return value:  Size  Location     Type
                  4   11[BANK0 ] long 
 Registers used:
		wreg, status,2, status,0
 Tracked objects:
		On entry : 
		On exit  : 
		Unchanged: 
 Data sizes:     COMMON   BANK0   BANK1   BANK2   BANK3   BANK4   BANK5   BANK6   BANK7   BANK8   BANK9  BANK10  BANK11  BANK12  BANK13  BANK14  BANK15  BANK16  BANK17  BANK18  BANK19  BANK20  BANK21  BANK22  BANK23  BANK24  BANK25
      Params:         0       8       0       0       0       0       0       0       0       0       0       0       0       0       0       0       0       0       0       0       0       0       0       0       0       0       0
      Locals:         2       0       0       0       0       0       0       0       0       0       0       0       0       0       0       0       0       0       0       0       0       0       0       0       0       0       0
      Temps:          1       0       0       0       0       0       0       0       0       0       0       0       0       0       0       0       0       0       0       0       0       0       0       0       0       0       0
      Totals:         3       8       0       0       0       0       0       0       0       0       0       0       0       0       0       0       0       0       0       0       0       0       0       0       0       0       0
Total ram usage:       11 bytes
 Hardware stack levels used:    1
 Hardware stack levels required when called:    4
 This function calls:
		Nothing
 This function is called by:
		_led_rand
 This function uses a non-reentrant model


 *************** function _led_curtain *****************
 Defined at:
		line 169 in file "main.c"
 Parameters:    Size  Location     Type
  counter         2   16[BANK0 ] unsigned int 
 Auto vars:     Size  Location     Type
  size            2   22[BANK0 ] unsigned int 
  leds            2   20[BANK0 ] unsigned int 
 Return value:  Size  Location     Type
                  1    wreg      void 
 Registers used:
		wreg, fsr1l, fsr1h, status,2, status,0, pclath, cstack
 Tracked objects:
		On entry : 
		On exit  : 
		Unchanged: 
 Data sizes:     COMMON   BANK0   BANK1   BANK2   BANK3   BANK4   BANK5   BANK6   BANK7   BANK8   BANK9  BANK10  BANK11  BANK12  BANK13  BANK14  BANK15  BANK16  BANK17  BANK18  BANK19  BANK20  BANK21  BANK22  BANK23  BANK24  BANK25
      Params:         0       2       0       0       0       0       0       0       0       0       0       0       0       0       0       0       0       0       0       0       0       0       0       0       0       0       0
      Locals:         0       4       0       0       0       0       0       0       0       0       0       0       0       0       0       0       0       0       0       0       0       0       0       0       0       0       0
      Temps:          0       2       0       0       0       0       0       0       0       0       0       0       0       0       0       0       0       0       0       0       0       0       0       0       0       0       0
      Totals:         0       8       0       0       0       0       0       0       0       0       0       0       0       0       0       0       0       0       0       0       0       0       0       0       0       0       0
Total ram usage:        8 bytes
 Hardware stack levels used:    1
 Hardware stack levels required when called:    9
 This function calls:
		___lwmod
		_nullifyBadge_userLedsSet
 This function is called by:
		_flashy_Main
		_matrix_Main
 This function uses a non-reentrant model


 *************** function _led_circle *****************
 Defined at:
		line 188 in file "main.c"
 Parameters:    Size  Location     Type
  count           2   16[BANK0 ] unsigned int 
 Auto vars:     Size  Location     Type
		None
 Return value:  Size  Location     Type
                  1    wreg      void 
 Registers used:
		wreg, fsr1l, fsr1h, status,2, status,0, pclath, cstack
 Tracked objects:
		On entry : 
		On exit  : 
		Unchanged: 
 Data sizes:     COMMON   BANK0   BANK1   BANK2   BANK3   BANK4   BANK5   BANK6   BANK7   BANK8   BANK9  BANK10  BANK11  BANK12  BANK13  BANK14  BANK15  BANK16  BANK17  BANK18  BANK19  BANK20  BANK21  BANK22  BANK23  BANK24  BANK25
      Params:         0       2       0       0       0       0       0       0       0       0       0       0       0       0       0       0       0       0       0       0       0       0       0       0       0       0       0
      Locals:         0       0       0       0       0       0       0       0       0       0       0       0       0       0       0       0       0       0       0       0       0       0       0       0       0       0       0
      Temps:          0       0       0       0       0       0       0       0       0       0       0       0       0       0       0       0       0       0       0       0       0       0       0       0       0       0       0
      Totals:         0       2       0       0       0       0       0       0       0       0       0       0       0       0       0       0       0       0       0       0       0       0       0       0       0       0       0
Total ram usage:        2 bytes
 Hardware stack levels used:    1
 Hardware stack levels required when called:    9
 This function calls:
		_nullifyBadge_userLedsSet
 This function is called by:
		_flashy_Main
		_slot_Running_Animation
 This function uses a non-reentrant model


 *************** function _led_Parody *****************
 Defined at:
		line 203 in file "main.c"
 Parameters:    Size  Location     Type
  count           2   16[BANK0 ] unsigned int 
 Auto vars:     Size  Location     Type
  size            2   22[BANK0 ] unsigned int 
  leds            2   20[BANK0 ] unsigned int 
 Return value:  Size  Location     Type
                  1    wreg      void 
 Registers used:
		wreg, fsr1l, fsr1h, status,2, status,0, pclath, cstack
 Tracked objects:
		On entry : 
		On exit  : 
		Unchanged: 
 Data sizes:     COMMON   BANK0   BANK1   BANK2   BANK3   BANK4   BANK5   BANK6   BANK7   BANK8   BANK9  BANK10  BANK11  BANK12  BANK13  BANK14  BANK15  BANK16  BANK17  BANK18  BANK19  BANK20  BANK21  BANK22  BANK23  BANK24  BANK25
      Params:         0       2       0       0       0       0       0       0       0       0       0       0       0       0       0       0       0       0       0       0       0       0       0       0       0       0       0
      Locals:         0       4       0       0       0       0       0       0       0       0       0       0       0       0       0       0       0       0       0       0       0       0       0       0       0       0       0
      Temps:          0       2       0       0       0       0       0       0       0       0       0       0       0       0       0       0       0       0       0       0       0       0       0       0       0       0       0
      Totals:         0       8       0       0       0       0       0       0       0       0       0       0       0       0       0       0       0       0       0       0       0       0       0       0       0       0       0
Total ram usage:        8 bytes
 Hardware stack levels used:    1
 Hardware stack levels required when called:    9
 This function calls:
		___lwmod
		_nullifyBadge_userLedsSet
 This function is called by:
		_flashy_Main
		_matrix_Main
 This function uses a non-reentrant model


 *************** function _nullifyBadge_userLedsSet *****************
 Defined at:
		line 164 in file "nullifyBadge.c"
 Parameters:    Size  Location     Type
  badge           1    wreg     PTR struct t_nullifyBadg
		 -> badge_inst(18), 
  userLedData     2   13[BANK0 ] unsigned int 
 Auto vars:     Size  Location     Type
  badge           1   15[BANK0 ] PTR struct t_nullifyBadg
		 -> badge_inst(18), 
 Return value:  Size  Location     Type
                  1    wreg      void 
 Registers used:
		wreg, fsr1l, fsr1h, status,2, status,0, pclath, cstack
 Tracked objects:
		On entry : 
		On exit  : 
		Unchanged: 
 Data sizes:     COMMON   BANK0   BANK1   BANK2   BANK3   BANK4   BANK5   BANK6   BANK7   BANK8   BANK9  BANK10  BANK11  BANK12  BANK13  BANK14  BANK15  BANK16  BANK17  BANK18  BANK19  BANK20  BANK21  BANK22  BANK23  BANK24  BANK25
      Params:         0       2       0       0       0       0       0       0       0       0       0       0       0       0       0       0       0       0       0       0       0       0       0       0       0       0       0
      Locals:         0       1       0       0       0       0       0       0       0       0       0       0       0       0       0       0       0       0       0       0       0       0       0       0       0       0       0
      Temps:          0       0       0       0       0       0       0       0       0       0       0       0       0       0       0       0       0       0       0       0       0       0       0       0       0       0       0
      Totals:         0       3       0       0       0       0       0       0       0       0       0       0       0       0       0       0       0       0       0       0       0       0       0       0       0       0       0
Total ram usage:        3 bytes
 Hardware stack levels used:    1
 Hardware stack levels required when called:    8
 This function calls:
		_displayL2_SetUserLeds
 This function is called by:
		_led_roundabout
		_led_curtain
		_led_rand
		_led_circle
		_let_alternate
		_led_Parody
		_menu_display_option
		_flashy_Main
		_locked_Main
 This function uses a non-reentrant model


 *************** function _displayL2_SetUserLeds *****************
 Defined at:
		line 88 in file "nullifyBadge_displayL2.c"
 Parameters:    Size  Location     Type
  display         1    wreg     PTR struct t_nullifyDisp
		 -> badge_inst(18), 
  userLedData     2   11[BANK0 ] unsigned int 
 Auto vars:     Size  Location     Type
  display         1   11[COMMON] PTR struct t_nullifyDisp
		 -> badge_inst(18), 
 Return value:  Size  Location     Type
                  1    wreg      void 
 Registers used:
		wreg, fsr1l, fsr1h, status,2, status,0, pclath, cstack
 Tracked objects:
		On entry : 
		On exit  : 
		Unchanged: 
 Data sizes:     COMMON   BANK0   BANK1   BANK2   BANK3   BANK4   BANK5   BANK6   BANK7   BANK8   BANK9  BANK10  BANK11  BANK12  BANK13  BANK14  BANK15  BANK16  BANK17  BANK18  BANK19  BANK20  BANK21  BANK22  BANK23  BANK24  BANK25
      Params:         0       2       0       0       0       0       0       0       0       0       0       0       0       0       0       0       0       0       0       0       0       0       0       0       0       0       0
      Locals:         1       0       0       0       0       0       0       0       0       0       0       0       0       0       0       0       0       0       0       0       0       0       0       0       0       0       0
      Temps:          0       0       0       0       0       0       0       0       0       0       0       0       0       0       0       0       0       0       0       0       0       0       0       0       0       0       0
      Totals:         1       2       0       0       0       0       0       0       0       0       0       0       0       0       0       0       0       0       0       0       0       0       0       0       0       0       0
Total ram usage:        3 bytes
 Hardware stack levels used:    1
 Hardware stack levels required when called:    7
 This function calls:
		_displayL1_SetUserLed
		_displayL1_Update
 This function is called by:
		_nullifyBadge_userLedsSet
		_nullifyBadge_userLedsSetForce
 This function uses a non-reentrant model


 *************** function _displayL1_SetUserLed *****************
 Defined at:
		line 71 in file "nullifyBadge_displayL1.c"
 Parameters:    Size  Location     Type
  display         1    wreg     PTR struct t_nullifyDisp
		 -> badge_inst(18), 
  userLedVect     2    1[COMMON] unsigned int 
 Auto vars:     Size  Location     Type
  display         1    4[COMMON] PTR struct t_nullifyDisp
		 -> badge_inst(18), 
 Return value:  Size  Location     Type
                  1    wreg      void 
 Registers used:
		wreg, fsr1l, fsr1h, status,2
 Tracked objects:
		On entry : 
		On exit  : 
		Unchanged: 
 Data sizes:     COMMON   BANK0   BANK1   BANK2   BANK3   BANK4   BANK5   BANK6   BANK7   BANK8   BANK9  BANK10  BANK11  BANK12  BANK13  BANK14  BANK15  BANK16  BANK17  BANK18  BANK19  BANK20  BANK21  BANK22  BANK23  BANK24  BANK25
      Params:         2       0       0       0       0       0       0       0       0       0       0       0       0       0       0       0       0       0       0       0       0       0       0       0       0       0       0
      Locals:         1       0       0       0       0       0       0       0       0       0       0       0       0       0       0       0       0       0       0       0       0       0       0       0       0       0       0
      Temps:          1       0       0       0       0       0       0       0       0       0       0       0       0       0       0       0       0       0       0       0       0       0       0       0       0       0       0
      Totals:         4       0       0       0       0       0       0       0       0       0       0       0       0       0       0       0       0       0       0       0       0       0       0       0       0       0       0
Total ram usage:        4 bytes
 Hardware stack levels used:    1
 Hardware stack levels required when called:    4
 This function calls:
		Nothing
 This function is called by:
		_displayL2_SetUserLeds
		_displayL2_ClrUserLeds
 This function uses a non-reentrant model


 *************** function _flashy_display_option *****************
 Defined at:
		line 105 in file "flashy_task.c"
 Parameters:    Size  Location     Type
  data            2   44[BANK0 ] PTR struct t_flashy_task
		 -> matrix_TaskData(31), secret_TaskData(14), locked_TaskData(14), slot_TaskData(40), 
		 -> menu_TaskData(14), flashy_TaskData(30), NULL(0), 
 Auto vars:     Size  Location     Type
		None
 Return value:  Size  Location     Type
                  1    wreg      void 
 Registers used:
		wreg, fsr0l, fsr0h, fsr1l, fsr1h, status,2, status,0, pclath, cstack
 Tracked objects:
		On entry : 
		On exit  : 
		Unchanged: 
 Data sizes:     COMMON   BANK0   BANK1   BANK2   BANK3   BANK4   BANK5   BANK6   BANK7   BANK8   BANK9  BANK10  BANK11  BANK12  BANK13  BANK14  BANK15  BANK16  BANK17  BANK18  BANK19  BANK20  BANK21  BANK22  BANK23  BANK24  BANK25
      Params:         0       2       0       0       0       0       0       0       0       0       0       0       0       0       0       0       0       0       0       0       0       0       0       0       0       0       0
      Locals:         0       0       0       0       0       0       0       0       0       0       0       0       0       0       0       0       0       0       0       0       0       0       0       0       0       0       0
      Temps:          0       0       0       0       0       0       0       0       0       0       0       0       0       0       0       0       0       0       0       0       0       0       0       0       0       0       0
      Totals:         0       2       0       0       0       0       0       0       0       0       0       0       0       0       0       0       0       0       0       0       0       0       0       0       0       0       0
Total ram usage:        2 bytes
 Hardware stack levels used:    1
 Hardware stack levels required when called:   10
 This function calls:
		_marquee
		_marquee_speedy
		_nullifyBadge_segDisplayForceUpdate
		_nullifyBadge_segDisplayPutStr
 This function is called by:
		_flashy_Main
 This function uses a non-reentrant model


 *************** function _marquee_speedy *****************
 Defined at:
		line 133 in file "main.c"
 Parameters:    Size  Location     Type
  string          2   26[BANK0 ] PTR unsigned char 
		 -> STR_82(23), STR_81(27), STR_80(46), STR_79(8), 
		 -> STR_78(7), STR_77(8), STR_76(6), STR_75(10), 
		 -> STR_74(5), STR_73(7), STR_72(9), STR_71(7), 
		 -> STR_70(7), STR_39(5), STR_38(43), STR_37(13), 
		 -> STR_36(47), STR_35(17), STR_34(120), STR_33(34), 
		 -> STR_32(16), STR_31(35), STR_30(15), STR_29(12), 
		 -> STR_28(29), STR_27(19), STR_26(17), STR_25(40), 
		 -> STR_24(27), STR_23(29), STR_22(30), STR_21(36), 
		 -> STR_20(28), STR_19(22), STR_18(8), STR_17(26), 
		 -> STR_16(21), STR_15(19), STR_14(6), STR_13(8), 
		 -> STR_12(9), STR_11(5), matrix_TaskData(31), secret_TaskData(14), 
		 -> locked_TaskData(14), slot_TaskData(40), menu_TaskData(14), flashy_TaskData(30), 
		 -> NULL(0), 
  count           2   28[BANK0 ] unsigned int 
  multiplier      2   30[BANK0 ] unsigned int 
 Auto vars:     Size  Location     Type
  j               2   42[BANK0 ] unsigned int 
  display_stri    5   33[BANK0 ] unsigned char [5]
  string_lengt    2   40[BANK0 ] unsigned int 
  i               2   38[BANK0 ] unsigned int 
 Return value:  Size  Location     Type
                  1    wreg      void 
 Registers used:
		wreg, fsr0l, fsr0h, fsr1l, fsr1h, status,2, status,0, pclath, cstack
 Tracked objects:
		On entry : 
		On exit  : 
		Unchanged: 
 Data sizes:     COMMON   BANK0   BANK1   BANK2   BANK3   BANK4   BANK5   BANK6   BANK7   BANK8   BANK9  BANK10  BANK11  BANK12  BANK13  BANK14  BANK15  BANK16  BANK17  BANK18  BANK19  BANK20  BANK21  BANK22  BANK23  BANK24  BANK25
      Params:         0       6       0       0       0       0       0       0       0       0       0       0       0       0       0       0       0       0       0       0       0       0       0       0       0       0       0
      Locals:         0      11       0       0       0       0       0       0       0       0       0       0       0       0       0       0       0       0       0       0       0       0       0       0       0       0       0
      Temps:          0       1       0       0       0       0       0       0       0       0       0       0       0       0       0       0       0       0       0       0       0       0       0       0       0       0       0
      Totals:         0      18       0       0       0       0       0       0       0       0       0       0       0       0       0       0       0       0       0       0       0       0       0       0       0       0       0
Total ram usage:       18 bytes
 Hardware stack levels used:    1
 Hardware stack levels required when called:    9
 This function calls:
		___lwdiv
		___lwmod
		_nullifyBadge_segDisplayForceUpdate
		_nullifyBadge_segDisplayPutStr
		_strlen
 This function is called by:
		_flashy_display_option
		_slot_Main
		_matrix_display_option
 This function uses a non-reentrant model


 *************** function _marquee *****************
 Defined at:
		line 146 in file "main.c"
 Parameters:    Size  Location     Type
  string          2   26[BANK0 ] PTR unsigned char 
		 -> STR_45(5), STR_44(5), STR_43(11), STR_42(13), 
		 -> STR_39(5), STR_38(43), STR_37(13), STR_36(47), 
		 -> STR_35(17), STR_34(120), STR_33(34), STR_32(16), 
		 -> STR_31(35), STR_30(15), STR_29(12), STR_28(29), 
		 -> STR_27(19), STR_26(17), STR_25(40), STR_24(27), 
		 -> STR_23(29), STR_22(30), STR_21(36), STR_20(28), 
		 -> STR_19(22), STR_18(8), STR_17(26), STR_16(21), 
		 -> STR_15(19), STR_14(6), STR_13(8), STR_12(9), 
		 -> STR_11(5), STR_10(18), STR_8(6), STR_7(8), 
		 -> STR_6(10), STR_5(6), STR_4(5), matrix_TaskData(31), 
		 -> secret_TaskData(14), locked_TaskData(14), slot_TaskData(40), menu_TaskData(14), 
		 -> flashy_TaskData(30), NULL(0), 
  count           2   28[BANK0 ] unsigned int 
 Auto vars:     Size  Location     Type
  j               2   42[BANK0 ] unsigned int 
  display_stri    5   31[BANK0 ] unsigned char [5]
  string_lengt    2   40[BANK0 ] unsigned int 
  i               2   38[BANK0 ] unsigned int 
  multiplier      2   36[BANK0 ] unsigned int 
 Return value:  Size  Location     Type
                  1    wreg      void 
 Registers used:
		wreg, fsr0l, fsr0h, fsr1l, fsr1h, status,2, status,0, pclath, cstack
 Tracked objects:
		On entry : 
		On exit  : 
		Unchanged: 
 Data sizes:     COMMON   BANK0   BANK1   BANK2   BANK3   BANK4   BANK5   BANK6   BANK7   BANK8   BANK9  BANK10  BANK11  BANK12  BANK13  BANK14  BANK15  BANK16  BANK17  BANK18  BANK19  BANK20  BANK21  BANK22  BANK23  BANK24  BANK25
      Params:         0       4       0       0       0       0       0       0       0       0       0       0       0       0       0       0       0       0       0       0       0       0       0       0       0       0       0
      Locals:         0      13       0       0       0       0       0       0       0       0       0       0       0       0       0       0       0       0       0       0       0       0       0       0       0       0       0
      Temps:          0       1       0       0       0       0       0       0       0       0       0       0       0       0       0       0       0       0       0       0       0       0       0       0       0       0       0
      Totals:         0      18       0       0       0       0       0       0       0       0       0       0       0       0       0       0       0       0       0       0       0       0       0       0       0       0       0
Total ram usage:       18 bytes
 Hardware stack levels used:    1
 Hardware stack levels required when called:    9
 This function calls:
		___lwdiv
		___lwmod
		_nullifyBadge_segDisplayForceUpdate
		_nullifyBadge_segDisplayPutStr
		_strlen
 This function is called by:
		_menu_display_option
		_flashy_display_option
		_flashy_Main
		_locked_Main
		_slot_Main
 This function uses a non-reentrant model


 *************** function _strlen *****************
 Defined at:
		line 4 in file "/Applications/microchip/xc8/v1.42/sources/common/strlen.c"
 Parameters:    Size  Location     Type
  s               2    1[COMMON] PTR const unsigned char 
		 -> STR_82(23), STR_81(27), STR_80(46), matrix_secret_inputs.inputs(20), 
		 -> matrix_secret_inputs(25), STR_79(8), STR_78(7), STR_77(8), 
		 -> STR_76(6), STR_75(10), STR_74(5), STR_73(7), 
		 -> STR_72(9), STR_71(7), STR_70(7), Slot_Wheel(55), 
		 -> secret_inputs.inputs(20), secret_inputs(25), STR_45(5), STR_44(5), 
		 -> STR_43(11), STR_42(13), STR_39(5), STR_38(43), 
		 -> STR_37(13), STR_36(47), STR_35(17), STR_34(120), 
		 -> STR_33(34), STR_32(16), STR_31(35), STR_30(15), 
		 -> STR_29(12), STR_28(29), STR_27(19), STR_26(17), 
		 -> STR_25(40), STR_24(27), STR_23(29), STR_22(30), 
		 -> STR_21(36), STR_20(28), STR_19(22), STR_18(8), 
		 -> STR_17(26), STR_16(21), STR_15(19), STR_14(6), 
		 -> STR_13(8), STR_12(9), STR_11(5), STR_10(18), 
		 -> STR_8(6), STR_7(8), STR_6(10), STR_5(6), 
		 -> STR_4(5), matrix_TaskData(31), secret_TaskData(14), locked_TaskData(14), 
		 -> slot_TaskData(40), menu_TaskData(14), flashy_TaskData(30), NULL(0), 
 Auto vars:     Size  Location     Type
  cp              2    5[COMMON] PTR const unsigned char 
		 -> STR_82(23), STR_81(27), STR_80(46), matrix_secret_inputs.inputs(20), 
		 -> matrix_secret_inputs(25), STR_79(8), STR_78(7), STR_77(8), 
		 -> STR_76(6), STR_75(10), STR_74(5), STR_73(7), 
		 -> STR_72(9), STR_71(7), STR_70(7), Slot_Wheel(55), 
		 -> secret_inputs.inputs(20), secret_inputs(25), STR_45(5), STR_44(5), 
		 -> STR_43(11), STR_42(13), STR_39(5), STR_38(43), 
		 -> STR_37(13), STR_36(47), STR_35(17), STR_34(120), 
		 -> STR_33(34), STR_32(16), STR_31(35), STR_30(15), 
		 -> STR_29(12), STR_28(29), STR_27(19), STR_26(17), 
		 -> STR_25(40), STR_24(27), STR_23(29), STR_22(30), 
		 -> STR_21(36), STR_20(28), STR_19(22), STR_18(8), 
		 -> STR_17(26), STR_16(21), STR_15(19), STR_14(6), 
		 -> STR_13(8), STR_12(9), STR_11(5), STR_10(18), 
		 -> STR_8(6), STR_7(8), STR_6(10), STR_5(6), 
		 -> STR_4(5), matrix_TaskData(31), secret_TaskData(14), locked_TaskData(14), 
		 -> slot_TaskData(40), menu_TaskData(14), flashy_TaskData(30), NULL(0), 
 Return value:  Size  Location     Type
                  2    1[COMMON] unsigned int 
 Registers used:
		wreg, fsr0l, fsr0h, status,2, status,0
 Tracked objects:
		On entry : 
		On exit  : 
		Unchanged: 
 Data sizes:     COMMON   BANK0   BANK1   BANK2   BANK3   BANK4   BANK5   BANK6   BANK7   BANK8   BANK9  BANK10  BANK11  BANK12  BANK13  BANK14  BANK15  BANK16  BANK17  BANK18  BANK19  BANK20  BANK21  BANK22  BANK23  BANK24  BANK25
      Params:         2       0       0       0       0       0       0       0       0       0       0       0       0       0       0       0       0       0       0       0       0       0       0       0       0       0       0
      Locals:         2       0       0       0       0       0       0       0       0       0       0       0       0       0       0       0       0       0       0       0       0       0       0       0       0       0       0
      Temps:          2       0       0       0       0       0       0       0       0       0       0       0       0       0       0       0       0       0       0       0       0       0       0       0       0       0       0
      Totals:         6       0       0       0       0       0       0       0       0       0       0       0       0       0       0       0       0       0       0       0       0       0       0       0       0       0       0
Total ram usage:        6 bytes
 Hardware stack levels used:    1
 Hardware stack levels required when called:    4
 This function calls:
		Nothing
 This function is called by:
		_marquee_speedy
		_marquee
		_secret_check
		_slot_Main
		_matrix_secret_check
 This function uses a non-reentrant model


 *************** function _nullifyBadge_segDisplayPutStr *****************
 Defined at:
		line 113 in file "nullifyBadge.c"
 Parameters:    Size  Location     Type
  badge           1    wreg     PTR struct t_nullifyBadg
		 -> badge_inst(18), 
  str             2   23[BANK0 ] PTR unsigned char 
		 -> flashy_Main@hit_counter(6), STR_40(5), STR_39(5), STR_38(43), 
		 -> STR_37(13), STR_36(47), STR_35(17), STR_34(120), 
		 -> STR_33(34), STR_32(16), STR_31(35), STR_30(15), 
		 -> STR_29(12), STR_28(29), STR_27(19), STR_26(17), 
		 -> STR_25(40), STR_24(27), STR_23(29), STR_22(30), 
		 -> STR_21(36), STR_20(28), STR_19(22), STR_18(8), 
		 -> STR_17(26), STR_16(21), STR_15(19), STR_14(6), 
		 -> STR_13(8), STR_12(9), STR_11(5), STR_8(6), 
		 -> STR_7(8), STR_6(10), STR_5(6), STR_4(5), 
		 -> marquee@display_string(5), marquee_speedy@display_string(5), 
 Auto vars:     Size  Location     Type
  badge           1   25[BANK0 ] PTR struct t_nullifyBadg
		 -> badge_inst(18), 
 Return value:  Size  Location     Type
                  1    wreg      void 
 Registers used:
		wreg, fsr0l, fsr0h, fsr1l, fsr1h, status,2, status,0, pclath, cstack
 Tracked objects:
		On entry : 
		On exit  : 
		Unchanged: 
 Data sizes:     COMMON   BANK0   BANK1   BANK2   BANK3   BANK4   BANK5   BANK6   BANK7   BANK8   BANK9  BANK10  BANK11  BANK12  BANK13  BANK14  BANK15  BANK16  BANK17  BANK18  BANK19  BANK20  BANK21  BANK22  BANK23  BANK24  BANK25
      Params:         0       2       0       0       0       0       0       0       0       0       0       0       0       0       0       0       0       0       0       0       0       0       0       0       0       0       0
      Locals:         0       1       0       0       0       0       0       0       0       0       0       0       0       0       0       0       0       0       0       0       0       0       0       0       0       0       0
      Temps:          0       0       0       0       0       0       0       0       0       0       0       0       0       0       0       0       0       0       0       0       0       0       0       0       0       0       0
      Totals:         0       3       0       0       0       0       0       0       0       0       0       0       0       0       0       0       0       0       0       0       0       0       0       0       0       0       0
Total ram usage:        3 bytes
 Hardware stack levels used:    1
 Hardware stack levels required when called:    8
 This function calls:
		_displayL2_PutStr
 This function is called by:
		_marquee_speedy
		_marquee
		_menu_display_option
		_flashy_display_option
		_flashy_Main
 This function uses a non-reentrant model


 *************** function _displayL2_PutStr *****************
 Defined at:
		line 55 in file "nullifyBadge_displayL2.c"
 Parameters:    Size  Location     Type
  display         1    wreg     PTR struct t_nullifyDisp
		 -> badge_inst(18), 
  str             2   16[BANK0 ] PTR unsigned char 
		 -> flashy_Main@hit_counter(6), STR_40(5), STR_39(5), STR_38(43), 
		 -> STR_37(13), STR_36(47), STR_35(17), STR_34(120), 
		 -> STR_33(34), STR_32(16), STR_31(35), STR_30(15), 
		 -> STR_29(12), STR_28(29), STR_27(19), STR_26(17), 
		 -> STR_25(40), STR_24(27), STR_23(29), STR_22(30), 
		 -> STR_21(36), STR_20(28), STR_19(22), STR_18(8), 
		 -> STR_17(26), STR_16(21), STR_15(19), STR_14(6), 
		 -> STR_13(8), STR_12(9), STR_11(5), STR_8(6), 
		 -> STR_7(8), STR_6(10), STR_5(6), STR_4(5), 
		 -> STR_3(5), marquee@display_string(5), marquee_speedy@display_string(5), 
 Auto vars:     Size  Location     Type
  display         1   21[BANK0 ] PTR struct t_nullifyDisp
		 -> badge_inst(18), 
  k               1   22[BANK0 ] unsigned char 
 Return value:  Size  Location     Type
                  1    wreg      void 
 Registers used:
		wreg, fsr0l, fsr0h, fsr1l, fsr1h, status,2, status,0, pclath, cstack
 Tracked objects:
		On entry : 
		On exit  : 
		Unchanged: 
 Data sizes:     COMMON   BANK0   BANK1   BANK2   BANK3   BANK4   BANK5   BANK6   BANK7   BANK8   BANK9  BANK10  BANK11  BANK12  BANK13  BANK14  BANK15  BANK16  BANK17  BANK18  BANK19  BANK20  BANK21  BANK22  BANK23  BANK24  BANK25
      Params:         0       2       0       0       0       0       0       0       0       0       0       0       0       0       0       0       0       0       0       0       0       0       0       0       0       0       0
      Locals:         0       2       0       0       0       0       0       0       0       0       0       0       0       0       0       0       0       0       0       0       0       0       0       0       0       0       0
      Temps:          0       3       0       0       0       0       0       0       0       0       0       0       0       0       0       0       0       0       0       0       0       0       0       0       0       0       0
      Totals:         0       7       0       0       0       0       0       0       0       0       0       0       0       0       0       0       0       0       0       0       0       0       0       0       0       0       0
Total ram usage:        7 bytes
 Hardware stack levels used:    1
 Hardware stack levels required when called:    7
 This function calls:
		_displayL2_PutChar
 This function is called by:
		_nullifyBadge_segDisplayPutStr
		_displayL2_EraseSegDisplay
 This function uses a non-reentrant model


 *************** function _displayL2_PutChar *****************
 Defined at:
		line 38 in file "nullifyBadge_displayL2.c"
 Parameters:    Size  Location     Type
  display         1    wreg     PTR struct t_nullifyDisp
		 -> badge_inst(18), 
  c               1   10[BANK0 ] unsigned char 
 Auto vars:     Size  Location     Type
  display         1   15[BANK0 ] PTR struct t_nullifyDisp
		 -> badge_inst(18), 
  k               1   14[BANK0 ] unsigned char 
 Return value:  Size  Location     Type
                  1    wreg      void 
 Registers used:
		wreg, fsr1l, fsr1h, status,2, status,0, pclath, cstack
 Tracked objects:
		On entry : 
		On exit  : 
		Unchanged: 
 Data sizes:     COMMON   BANK0   BANK1   BANK2   BANK3   BANK4   BANK5   BANK6   BANK7   BANK8   BANK9  BANK10  BANK11  BANK12  BANK13  BANK14  BANK15  BANK16  BANK17  BANK18  BANK19  BANK20  BANK21  BANK22  BANK23  BANK24  BANK25
      Params:         0       1       0       0       0       0       0       0       0       0       0       0       0       0       0       0       0       0       0       0       0       0       0       0       0       0       0
      Locals:         0       2       0       0       0       0       0       0       0       0       0       0       0       0       0       0       0       0       0       0       0       0       0       0       0       0       0
      Temps:          0       3       0       0       0       0       0       0       0       0       0       0       0       0       0       0       0       0       0       0       0       0       0       0       0       0       0
      Totals:         0       6       0       0       0       0       0       0       0       0       0       0       0       0       0       0       0       0       0       0       0       0       0       0       0       0       0
Total ram usage:        6 bytes
 Hardware stack levels used:    1
 Hardware stack levels required when called:    6
 This function calls:
		_displayL1_SetSegChar
 This function is called by:
		_displayL2_PutStr
		_nullifyBadge_segDisplayPutChar
 This function uses a non-reentrant model


 *************** function _displayL1_SetSegChar *****************
 Defined at:
		line 18 in file "nullifyBadge_displayL1.c"
 Parameters:    Size  Location     Type
  display         1    wreg     PTR struct t_nullifyDisp
		 -> badge_inst(18), 
  c               1    0[BANK0 ] unsigned char 
  charPos         1    1[BANK0 ] unsigned char 
 Auto vars:     Size  Location     Type
  display         1    7[BANK0 ] PTR struct t_nullifyDisp
		 -> badge_inst(18), 
  charData        2    8[BANK0 ] unsigned int 
  dispDataVect    1    6[BANK0 ] unsigned char 
 Return value:  Size  Location     Type
                  1    wreg      void 
 Registers used:
		wreg, fsr1l, fsr1h, status,2, status,0, pclath, cstack
 Tracked objects:
		On entry : 
		On exit  : 
		Unchanged: 
 Data sizes:     COMMON   BANK0   BANK1   BANK2   BANK3   BANK4   BANK5   BANK6   BANK7   BANK8   BANK9  BANK10  BANK11  BANK12  BANK13  BANK14  BANK15  BANK16  BANK17  BANK18  BANK19  BANK20  BANK21  BANK22  BANK23  BANK24  BANK25
      Params:         0       2       0       0       0       0       0       0       0       0       0       0       0       0       0       0       0       0       0       0       0       0       0       0       0       0       0
      Locals:         0       4       0       0       0       0       0       0       0       0       0       0       0       0       0       0       0       0       0       0       0       0       0       0       0       0       0
      Temps:          0       4       0       0       0       0       0       0       0       0       0       0       0       0       0       0       0       0       0       0       0       0       0       0       0       0       0
      Totals:         0      10       0       0       0       0       0       0       0       0       0       0       0       0       0       0       0       0       0       0       0       0       0       0       0       0       0
Total ram usage:       10 bytes
 Hardware stack levels used:    1
 Hardware stack levels required when called:    5
 This function calls:
		_displayCharReverse
 This function is called by:
		_displayL2_PutChar
		_nullifyBadge_segDisplayPutCharPos
		_displayL2_PrintChar
 This function uses a non-reentrant model


 *************** function _displayCharReverse *****************
 Defined at:
		line 105 in file "nullifyBadge_displayL1.c"
 Parameters:    Size  Location     Type
  cVal            2    1[COMMON] unsigned int 
 Auto vars:     Size  Location     Type
  k               1   11[COMMON] unsigned char 
  retValUpperR    1   10[COMMON] unsigned char 
  retValUpper     1    9[COMMON] unsigned char 
  retValLower     1    8[COMMON] unsigned char 
 Return value:  Size  Location     Type
                  2    1[COMMON] unsigned int 
 Registers used:
		wreg, status,2, status,0
 Tracked objects:
		On entry : 
		On exit  : 
		Unchanged: 
 Data sizes:     COMMON   BANK0   BANK1   BANK2   BANK3   BANK4   BANK5   BANK6   BANK7   BANK8   BANK9  BANK10  BANK11  BANK12  BANK13  BANK14  BANK15  BANK16  BANK17  BANK18  BANK19  BANK20  BANK21  BANK22  BANK23  BANK24  BANK25
      Params:         2       0       0       0       0       0       0       0       0       0       0       0       0       0       0       0       0       0       0       0       0       0       0       0       0       0       0
      Locals:         4       0       0       0       0       0       0       0       0       0       0       0       0       0       0       0       0       0       0       0       0       0       0       0       0       0       0
      Temps:          5       0       0       0       0       0       0       0       0       0       0       0       0       0       0       0       0       0       0       0       0       0       0       0       0       0       0
      Totals:        11       0       0       0       0       0       0       0       0       0       0       0       0       0       0       0       0       0       0       0       0       0       0       0       0       0       0
Total ram usage:       11 bytes
 Hardware stack levels used:    1
 Hardware stack levels required when called:    4
 This function calls:
		Nothing
 This function is called by:
		_displayL1_SetSegChar
 This function uses a non-reentrant model


 *************** function _nullifyBadge_segDisplayForceUpdate *****************
 Defined at:
		line 108 in file "nullifyBadge.c"
 Parameters:    Size  Location     Type
  badge           1    wreg     PTR struct t_nullifyBadg
		 -> badge_inst(18), 
 Auto vars:     Size  Location     Type
  badge           1   11[BANK0 ] PTR struct t_nullifyBadg
		 -> badge_inst(18), 
 Return value:  Size  Location     Type
                  1    wreg      void 
 Registers used:
		wreg, fsr1l, fsr1h, status,2, status,0, pclath, cstack
 Tracked objects:
		On entry : 
		On exit  : 
		Unchanged: 
 Data sizes:     COMMON   BANK0   BANK1   BANK2   BANK3   BANK4   BANK5   BANK6   BANK7   BANK8   BANK9  BANK10  BANK11  BANK12  BANK13  BANK14  BANK15  BANK16  BANK17  BANK18  BANK19  BANK20  BANK21  BANK22  BANK23  BANK24  BANK25
      Params:         0       0       0       0       0       0       0       0       0       0       0       0       0       0       0       0       0       0       0       0       0       0       0       0       0       0       0
      Locals:         0       1       0       0       0       0       0       0       0       0       0       0       0       0       0       0       0       0       0       0       0       0       0       0       0       0       0
      Temps:          0       0       0       0       0       0       0       0       0       0       0       0       0       0       0       0       0       0       0       0       0       0       0       0       0       0       0
      Totals:         0       1       0       0       0       0       0       0       0       0       0       0       0       0       0       0       0       0       0       0       0       0       0       0       0       0       0
Total ram usage:        1 bytes
 Hardware stack levels used:    1
 Hardware stack levels required when called:    8
 This function calls:
		_displayL2_ForceUpdate
 This function is called by:
		_marquee_speedy
		_marquee
		_menu_display_option
		_flashy_display_option
		_flashy_Main
 This function uses a non-reentrant model


 *************** function _displayL2_ForceUpdate *****************
 Defined at:
		line 79 in file "nullifyBadge_displayL2.c"
 Parameters:    Size  Location     Type
  display         1    wreg     PTR struct t_nullifyDisp
		 -> badge_inst(18), 
 Auto vars:     Size  Location     Type
  display         1   11[COMMON] PTR struct t_nullifyDisp
		 -> badge_inst(18), 
 Return value:  Size  Location     Type
                  1    wreg      void 
 Registers used:
		wreg, fsr1l, fsr1h, status,2, status,0, pclath, cstack
 Tracked objects:
		On entry : 
		On exit  : 
		Unchanged: 
 Data sizes:     COMMON   BANK0   BANK1   BANK2   BANK3   BANK4   BANK5   BANK6   BANK7   BANK8   BANK9  BANK10  BANK11  BANK12  BANK13  BANK14  BANK15  BANK16  BANK17  BANK18  BANK19  BANK20  BANK21  BANK22  BANK23  BANK24  BANK25
      Params:         0       0       0       0       0       0       0       0       0       0       0       0       0       0       0       0       0       0       0       0       0       0       0       0       0       0       0
      Locals:         1       0       0       0       0       0       0       0       0       0       0       0       0       0       0       0       0       0       0       0       0       0       0       0       0       0       0
      Temps:          0       0       0       0       0       0       0       0       0       0       0       0       0       0       0       0       0       0       0       0       0       0       0       0       0       0       0
      Totals:         1       0       0       0       0       0       0       0       0       0       0       0       0       0       0       0       0       0       0       0       0       0       0       0       0       0       0
Total ram usage:        1 bytes
 Hardware stack levels used:    1
 Hardware stack levels required when called:    7
 This function calls:
		_displayL1_Update
 This function is called by:
		_nullifyBadge_segDisplayForceUpdate
 This function uses a non-reentrant model


 *************** function ___lwmod *****************
 Defined at:
		line 6 in file "/Applications/microchip/xc8/v1.42/sources/common/lwmod.c"
 Parameters:    Size  Location     Type
  divisor         2   11[BANK0 ] unsigned int 
  dividend        2   13[BANK0 ] unsigned int 
 Auto vars:     Size  Location     Type
  counter         1   10[COMMON] unsigned char 
 Return value:  Size  Location     Type
                  2   11[BANK0 ] unsigned int 
 Registers used:
		wreg, status,2, status,0
 Tracked objects:
		On entry : 
		On exit  : 
		Unchanged: 
 Data sizes:     COMMON   BANK0   BANK1   BANK2   BANK3   BANK4   BANK5   BANK6   BANK7   BANK8   BANK9  BANK10  BANK11  BANK12  BANK13  BANK14  BANK15  BANK16  BANK17  BANK18  BANK19  BANK20  BANK21  BANK22  BANK23  BANK24  BANK25
      Params:         0       4       0       0       0       0       0       0       0       0       0       0       0       0       0       0       0       0       0       0       0       0       0       0       0       0       0
      Locals:         1       0       0       0       0       0       0       0       0       0       0       0       0       0       0       0       0       0       0       0       0       0       0       0       0       0       0
      Temps:          1       0       0       0       0       0       0       0       0       0       0       0       0       0       0       0       0       0       0       0       0       0       0       0       0       0       0
      Totals:         2       4       0       0       0       0       0       0       0       0       0       0       0       0       0       0       0       0       0       0       0       0       0       0       0       0       0
Total ram usage:        6 bytes
 Hardware stack levels used:    1
 Hardware stack levels required when called:    4
 This function calls:
		Nothing
 This function is called by:
		_marquee_speedy
		_marquee
		_led_roundabout
		_led_curtain
		_led_Parody
		_menu_display_option
		_locked_Main
		_slot_Setup
		_slot_Main
		_sprintf
 This function uses a non-reentrant model


 *************** function ___lwdiv *****************
 Defined at:
		line 6 in file "/Applications/microchip/xc8/v1.42/sources/common/lwdiv.c"
 Parameters:    Size  Location     Type
  divisor         2    1[COMMON] unsigned int 
  dividend        2    3[COMMON] unsigned int 
 Auto vars:     Size  Location     Type
  quotient        2    7[COMMON] unsigned int 
  counter         1    6[COMMON] unsigned char 
 Return value:  Size  Location     Type
                  2    1[COMMON] unsigned int 
 Registers used:
		wreg, status,2, status,0
 Tracked objects:
		On entry : 
		On exit  : 
		Unchanged: 
 Data sizes:     COMMON   BANK0   BANK1   BANK2   BANK3   BANK4   BANK5   BANK6   BANK7   BANK8   BANK9  BANK10  BANK11  BANK12  BANK13  BANK14  BANK15  BANK16  BANK17  BANK18  BANK19  BANK20  BANK21  BANK22  BANK23  BANK24  BANK25
      Params:         4       0       0       0       0       0       0       0       0       0       0       0       0       0       0       0       0       0       0       0       0       0       0       0       0       0       0
      Locals:         3       0       0       0       0       0       0       0       0       0       0       0       0       0       0       0       0       0       0       0       0       0       0       0       0       0       0
      Temps:          1       0       0       0       0       0       0       0       0       0       0       0       0       0       0       0       0       0       0       0       0       0       0       0       0       0       0
      Totals:         8       0       0       0       0       0       0       0       0       0       0       0       0       0       0       0       0       0       0       0       0       0       0       0       0       0       0
Total ram usage:        8 bytes
 Hardware stack levels used:    1
 Hardware stack levels required when called:    4
 This function calls:
		Nothing
 This function is called by:
		_marquee_speedy
		_marquee
		_sprintf
 This function uses a non-reentrant model


 *************** function _TMR0_Read16bitTimer *****************
 Defined at:
		line 109 in file "mcc_generated_files/tmr0.c"
 Parameters:    Size  Location     Type
		None
 Auto vars:     Size  Location     Type
  readVal         2    8[COMMON] unsigned int 
  readValHigh     1   11[COMMON] unsigned char 
  readValLow      1   10[COMMON] unsigned char 
 Return value:  Size  Location     Type
                  2    1[COMMON] unsigned int 
 Registers used:
		wreg, status,2, status,0
 Tracked objects:
		On entry : 
		On exit  : 
		Unchanged: 
 Data sizes:     COMMON   BANK0   BANK1   BANK2   BANK3   BANK4   BANK5   BANK6   BANK7   BANK8   BANK9  BANK10  BANK11  BANK12  BANK13  BANK14  BANK15  BANK16  BANK17  BANK18  BANK19  BANK20  BANK21  BANK22  BANK23  BANK24  BANK25
      Params:         2       0       0       0       0       0       0       0       0       0       0       0       0       0       0       0       0       0       0       0       0       0       0       0       0       0       0
      Locals:         4       0       0       0       0       0       0       0       0       0       0       0       0       0       0       0       0       0       0       0       0       0       0       0       0       0       0
      Temps:          5       0       0       0       0       0       0       0       0       0       0       0       0       0       0       0       0       0       0       0       0       0       0       0       0       0       0
      Totals:        11       0       0       0       0       0       0       0       0       0       0       0       0       0       0       0       0       0       0       0       0       0       0       0       0       0       0
Total ram usage:       11 bytes
 Hardware stack levels used:    1
 Hardware stack levels required when called:    4
 This function calls:
		Nothing
 This function is called by:
		_scheduler_TaskRun
		_schedulerExecute
 This function uses a non-reentrant model


 *************** function _nullifyBadge_platformInit *****************
 Defined at:
		line 13 in file "nullifyBadge.c"
 Parameters:    Size  Location     Type
  badge           1    wreg     PTR struct t_nullifyBadg
		 -> badge_inst(18), 
 Auto vars:     Size  Location     Type
  badge           1   12[BANK0 ] PTR struct t_nullifyBadg
		 -> badge_inst(18), 
 Return value:  Size  Location     Type
                  1    wreg      void 
 Registers used:
		wreg, fsr0l, fsr0h, fsr1l, fsr1h, status,2, status,0, pclath, cstack
 Tracked objects:
		On entry : 
		On exit  : 
		Unchanged: 
 Data sizes:     COMMON   BANK0   BANK1   BANK2   BANK3   BANK4   BANK5   BANK6   BANK7   BANK8   BANK9  BANK10  BANK11  BANK12  BANK13  BANK14  BANK15  BANK16  BANK17  BANK18  BANK19  BANK20  BANK21  BANK22  BANK23  BANK24  BANK25
      Params:         0       0       0       0       0       0       0       0       0       0       0       0       0       0       0       0       0       0       0       0       0       0       0       0       0       0       0
      Locals:         0       1       0       0       0       0       0       0       0       0       0       0       0       0       0       0       0       0       0       0       0       0       0       0       0       0       0
      Temps:          0       0       0       0       0       0       0       0       0       0       0       0       0       0       0       0       0       0       0       0       0       0       0       0       0       0       0
      Totals:         0       1       0       0       0       0       0       0       0       0       0       0       0       0       0       0       0       0       0       0       0       0       0       0       0       0       0
Total ram usage:        1 bytes
 Hardware stack levels used:    1
 Hardware stack levels required when called:    9
 This function calls:
		_OSCILLATOR_Initialize
		_PIN_MANAGER_Initialize
		_PWM1_Initialize
		_PWM1_LoadDutyValue
		_PWM2_Initialize
		_PWM2_LoadDutyValue
		_PWM5_Initialize
		_PWM5_LoadDutyValue
		_PWM6_Initialize
		_PWM6_LoadDutyValue
		_SPI1_Initialize
		_SYSTEM_Initialize
		_TMR0_Initialize
		_TMR2_Initialize
		_TMR4_Initialize
		_displayL2_Initialize
 This function is called by:
		_main
 This function uses a non-reentrant model


 *************** function _displayL2_Initialize *****************
 Defined at:
		line 12 in file "nullifyBadge_displayL2.c"
 Parameters:    Size  Location     Type
  display         1    wreg     PTR struct t_nullifyDisp
		 -> badge_inst(18), 
 Auto vars:     Size  Location     Type
  display         1   11[BANK0 ] PTR struct t_nullifyDisp
		 -> badge_inst(18), 
 Return value:  Size  Location     Type
                  1    wreg      void 
 Registers used:
		wreg, fsr1l, fsr1h, status,2, status,0, pclath, cstack
 Tracked objects:
		On entry : 
		On exit  : 
		Unchanged: 
 Data sizes:     COMMON   BANK0   BANK1   BANK2   BANK3   BANK4   BANK5   BANK6   BANK7   BANK8   BANK9  BANK10  BANK11  BANK12  BANK13  BANK14  BANK15  BANK16  BANK17  BANK18  BANK19  BANK20  BANK21  BANK22  BANK23  BANK24  BANK25
      Params:         0       0       0       0       0       0       0       0       0       0       0       0       0       0       0       0       0       0       0       0       0       0       0       0       0       0       0
      Locals:         0       1       0       0       0       0       0       0       0       0       0       0       0       0       0       0       0       0       0       0       0       0       0       0       0       0       0
      Temps:          0       0       0       0       0       0       0       0       0       0       0       0       0       0       0       0       0       0       0       0       0       0       0       0       0       0       0
      Totals:         0       1       0       0       0       0       0       0       0       0       0       0       0       0       0       0       0       0       0       0       0       0       0       0       0       0       0
Total ram usage:        1 bytes
 Hardware stack levels used:    1
 Hardware stack levels required when called:    8
 This function calls:
		_displayL1_Initialize
		_memset
 This function is called by:
		_nullifyBadge_platformInit
 This function uses a non-reentrant model


 *************** function _displayL1_Initialize *****************
 Defined at:
		line 13 in file "nullifyBadge_displayL1.c"
 Parameters:    Size  Location     Type
  display         1    wreg     PTR struct t_nullifyDisp
		 -> badge_inst(18), 
 Auto vars:     Size  Location     Type
  display         1   11[COMMON] PTR struct t_nullifyDisp
		 -> badge_inst(18), 
 Return value:  Size  Location     Type
                  1    wreg      void 
 Registers used:
		wreg, fsr1l, fsr1h, status,2, status,0, pclath, cstack
 Tracked objects:
		On entry : 
		On exit  : 
		Unchanged: 
 Data sizes:     COMMON   BANK0   BANK1   BANK2   BANK3   BANK4   BANK5   BANK6   BANK7   BANK8   BANK9  BANK10  BANK11  BANK12  BANK13  BANK14  BANK15  BANK16  BANK17  BANK18  BANK19  BANK20  BANK21  BANK22  BANK23  BANK24  BANK25
      Params:         0       0       0       0       0       0       0       0       0       0       0       0       0       0       0       0       0       0       0       0       0       0       0       0       0       0       0
      Locals:         1       0       0       0       0       0       0       0       0       0       0       0       0       0       0       0       0       0       0       0       0       0       0       0       0       0       0
      Temps:          0       0       0       0       0       0       0       0       0       0       0       0       0       0       0       0       0       0       0       0       0       0       0       0       0       0       0
      Totals:         1       0       0       0       0       0       0       0       0       0       0       0       0       0       0       0       0       0       0       0       0       0       0       0       0       0       0
Total ram usage:        1 bytes
 Hardware stack levels used:    1
 Hardware stack levels required when called:    7
 This function calls:
		_displayL1_Update
		_memset
 This function is called by:
		_displayL2_Initialize
 This function uses a non-reentrant model


 *************** function _memset *****************
 Defined at:
		line 8 in file "/Applications/microchip/xc8/v1.42/sources/common/memset.c"
 Parameters:    Size  Location     Type
  p1              2    1[COMMON] PTR void 
		 -> matrix_TaskData(31), secret_TaskData(14), locked_TaskData(14), slot_TaskData(40), 
		 -> menu_TaskData(14), flashy_TaskData(30), badge_inst(18), NULL(0), 
  c               2    3[COMMON] int 
  n               2    5[COMMON] unsigned int 
 Auto vars:     Size  Location     Type
  p               2    7[COMMON] PTR unsigned char 
		 -> matrix_TaskData(31), secret_TaskData(14), locked_TaskData(14), slot_TaskData(40), 
		 -> menu_TaskData(14), flashy_TaskData(30), badge_inst(18), NULL(0), 
 Return value:  Size  Location     Type
                  2    1[COMMON] PTR void 
 Registers used:
		wreg, fsr1l, fsr1h, status,2, status,0
 Tracked objects:
		On entry : 
		On exit  : 
		Unchanged: 
 Data sizes:     COMMON   BANK0   BANK1   BANK2   BANK3   BANK4   BANK5   BANK6   BANK7   BANK8   BANK9  BANK10  BANK11  BANK12  BANK13  BANK14  BANK15  BANK16  BANK17  BANK18  BANK19  BANK20  BANK21  BANK22  BANK23  BANK24  BANK25
      Params:         6       0       0       0       0       0       0       0       0       0       0       0       0       0       0       0       0       0       0       0       0       0       0       0       0       0       0
      Locals:         2       0       0       0       0       0       0       0       0       0       0       0       0       0       0       0       0       0       0       0       0       0       0       0       0       0       0
      Temps:          0       0       0       0       0       0       0       0       0       0       0       0       0       0       0       0       0       0       0       0       0       0       0       0       0       0       0
      Totals:         8       0       0       0       0       0       0       0       0       0       0       0       0       0       0       0       0       0       0       0       0       0       0       0       0       0       0
Total ram usage:        8 bytes
 Hardware stack levels used:    1
 Hardware stack levels required when called:    4
 This function calls:
		Nothing
 This function is called by:
		_displayL1_Initialize
		_displayL2_Initialize
		_slot_Setup
		_slot_Main
 This function uses a non-reentrant model


 *************** function _displayL1_Update *****************
 Defined at:
		line 97 in file "nullifyBadge_displayL1.c"
 Parameters:    Size  Location     Type
  display         1    wreg     PTR struct t_nullifyDisp
		 -> badge_inst(18), 
 Auto vars:     Size  Location     Type
  display         1   10[BANK0 ] PTR struct t_nullifyDisp
		 -> badge_inst(18), 
  tmpRxBuf       10    0[BANK0 ] unsigned char [10]
 Return value:  Size  Location     Type
                  1    wreg      void 
 Registers used:
		wreg, fsr1l, fsr1h, status,2, status,0, pclath, cstack
 Tracked objects:
		On entry : 
		On exit  : 
		Unchanged: 
 Data sizes:     COMMON   BANK0   BANK1   BANK2   BANK3   BANK4   BANK5   BANK6   BANK7   BANK8   BANK9  BANK10  BANK11  BANK12  BANK13  BANK14  BANK15  BANK16  BANK17  BANK18  BANK19  BANK20  BANK21  BANK22  BANK23  BANK24  BANK25
      Params:         0       0       0       0       0       0       0       0       0       0       0       0       0       0       0       0       0       0       0       0       0       0       0       0       0       0       0
      Locals:         0      11       0       0       0       0       0       0       0       0       0       0       0       0       0       0       0       0       0       0       0       0       0       0       0       0       0
      Temps:          2       0       0       0       0       0       0       0       0       0       0       0       0       0       0       0       0       0       0       0       0       0       0       0       0       0       0
      Totals:         2      11       0       0       0       0       0       0       0       0       0       0       0       0       0       0       0       0       0       0       0       0       0       0       0       0       0
Total ram usage:       13 bytes
 Hardware stack levels used:    1
 Hardware stack levels required when called:    6
 This function calls:
		_SPI1_Exchange8bitBuffer
 This function is called by:
		_displayL1_Initialize
		_displayL2_ForceUpdate
		_displayL2_EraseSegDisplay
		_displayL2_SetUserLeds
		_displayL2_ClrUserLeds
		_displayL2_PrintChar
		_displayL2_PrintStr
 This function uses a non-reentrant model


 *************** function _SPI1_Exchange8bitBuffer *****************
 Defined at:
		line 91 in file "mcc_generated_files/spi1.c"
 Parameters:    Size  Location     Type
  dataIn          1    wreg     PTR unsigned char 
		 -> badge_inst(18), 
  bufLen          1    2[COMMON] unsigned char 
  dataOut         1    3[COMMON] PTR unsigned char 
		 -> displayL1_Update@tmpRxBuf(10), 
 Auto vars:     Size  Location     Type
  dataIn          1    7[COMMON] PTR unsigned char 
		 -> badge_inst(18), 
  bytesWritten    1    8[COMMON] unsigned char 
 Return value:  Size  Location     Type
                  1    wreg      unsigned char 
 Registers used:
		wreg, fsr1l, fsr1h, status,2, status,0, pclath, cstack
 Tracked objects:
		On entry : 
		On exit  : 
		Unchanged: 
 Data sizes:     COMMON   BANK0   BANK1   BANK2   BANK3   BANK4   BANK5   BANK6   BANK7   BANK8   BANK9  BANK10  BANK11  BANK12  BANK13  BANK14  BANK15  BANK16  BANK17  BANK18  BANK19  BANK20  BANK21  BANK22  BANK23  BANK24  BANK25
      Params:         2       0       0       0       0       0       0       0       0       0       0       0       0       0       0       0       0       0       0       0       0       0       0       0       0       0       0
      Locals:         2       0       0       0       0       0       0       0       0       0       0       0       0       0       0       0       0       0       0       0       0       0       0       0       0       0       0
      Temps:          3       0       0       0       0       0       0       0       0       0       0       0       0       0       0       0       0       0       0       0       0       0       0       0       0       0       0
      Totals:         7       0       0       0       0       0       0       0       0       0       0       0       0       0       0       0       0       0       0       0       0       0       0       0       0       0       0
Total ram usage:        7 bytes
 Hardware stack levels used:    1
 Hardware stack levels required when called:    5
 This function calls:
		_SPI1_Exchange8bit
 This function is called by:
		_displayL1_Update
 This function uses a non-reentrant model


 *************** function _SPI1_Exchange8bit *****************
 Defined at:
		line 77 in file "mcc_generated_files/spi1.c"
 Parameters:    Size  Location     Type
  data            1    wreg     unsigned char 
 Auto vars:     Size  Location     Type
  data            1    1[COMMON] unsigned char 
 Return value:  Size  Location     Type
                  1    wreg      unsigned char 
 Registers used:
		wreg
 Tracked objects:
		On entry : 
		On exit  : 
		Unchanged: 
 Data sizes:     COMMON   BANK0   BANK1   BANK2   BANK3   BANK4   BANK5   BANK6   BANK7   BANK8   BANK9  BANK10  BANK11  BANK12  BANK13  BANK14  BANK15  BANK16  BANK17  BANK18  BANK19  BANK20  BANK21  BANK22  BANK23  BANK24  BANK25
      Params:         0       0       0       0       0       0       0       0       0       0       0       0       0       0       0       0       0       0       0       0       0       0       0       0       0       0       0
      Locals:         1       0       0       0       0       0       0       0       0       0       0       0       0       0       0       0       0       0       0       0       0       0       0       0       0       0       0
      Temps:          0       0       0       0       0       0       0       0       0       0       0       0       0       0       0       0       0       0       0       0       0       0       0       0       0       0       0
      Totals:         1       0       0       0       0       0       0       0       0       0       0       0       0       0       0       0       0       0       0       0       0       0       0       0       0       0       0
Total ram usage:        1 bytes
 Hardware stack levels used:    1
 Hardware stack levels required when called:    4
 This function calls:
		Nothing
 This function is called by:
		_SPI1_Exchange8bitBuffer
 This function uses a non-reentrant model


 *************** function _SYSTEM_Initialize *****************
 Defined at:
		line 76 in file "mcc_generated_files/mcc.c"
 Parameters:    Size  Location     Type
		None
 Auto vars:     Size  Location     Type
		None
 Return value:  Size  Location     Type
                  1    wreg      void 
 Registers used:
		wreg, status,2, status,0, pclath, cstack
 Tracked objects:
		On entry : 
		On exit  : 
		Unchanged: 
 Data sizes:     COMMON   BANK0   BANK1   BANK2   BANK3   BANK4   BANK5   BANK6   BANK7   BANK8   BANK9  BANK10  BANK11  BANK12  BANK13  BANK14  BANK15  BANK16  BANK17  BANK18  BANK19  BANK20  BANK21  BANK22  BANK23  BANK24  BANK25
      Params:         0       0       0       0       0       0       0       0       0       0       0       0       0       0       0       0       0       0       0       0       0       0       0       0       0       0       0
      Locals:         0       0       0       0       0       0       0       0       0       0       0       0       0       0       0       0       0       0       0       0       0       0       0       0       0       0       0
      Temps:          0       0       0       0       0       0       0       0       0       0       0       0       0       0       0       0       0       0       0       0       0       0       0       0       0       0       0
      Totals:         0       0       0       0       0       0       0       0       0       0       0       0       0       0       0       0       0       0       0       0       0       0       0       0       0       0       0
Total ram usage:        0 bytes
 Hardware stack levels used:    1
 Hardware stack levels required when called:    6
 This function calls:
		_OSCILLATOR_Initialize
		_PIN_MANAGER_Initialize
		_PWM1_Initialize
		_PWM2_Initialize
		_PWM5_Initialize
		_PWM6_Initialize
		_SPI1_Initialize
		_TMR0_Initialize
		_TMR2_Initialize
		_TMR4_Initialize
		_WDT_Initialize
 This function is called by:
		_nullifyBadge_platformInit
 This function uses a non-reentrant model


 *************** function _WDT_Initialize *****************
 Defined at:
		line 110 in file "mcc_generated_files/mcc.c"
 Parameters:    Size  Location     Type
		None
 Auto vars:     Size  Location     Type
		None
 Return value:  Size  Location     Type
                  1    wreg      void 
 Registers used:
		wreg
 Tracked objects:
		On entry : 
		On exit  : 
		Unchanged: 
 Data sizes:     COMMON   BANK0   BANK1   BANK2   BANK3   BANK4   BANK5   BANK6   BANK7   BANK8   BANK9  BANK10  BANK11  BANK12  BANK13  BANK14  BANK15  BANK16  BANK17  BANK18  BANK19  BANK20  BANK21  BANK22  BANK23  BANK24  BANK25
      Params:         0       0       0       0       0       0       0       0       0       0       0       0       0       0       0       0       0       0       0       0       0       0       0       0       0       0       0
      Locals:         0       0       0       0       0       0       0       0       0       0       0       0       0       0       0       0       0       0       0       0       0       0       0       0       0       0       0
      Temps:          0       0       0       0       0       0       0       0       0       0       0       0       0       0       0       0       0       0       0       0       0       0       0       0       0       0       0
      Totals:         0       0       0       0       0       0       0       0       0       0       0       0       0       0       0       0       0       0       0       0       0       0       0       0       0       0       0
Total ram usage:        0 bytes
 Hardware stack levels used:    1
 Hardware stack levels required when called:    4
 This function calls:
		Nothing
 This function is called by:
		_SYSTEM_Initialize
 This function uses a non-reentrant model


 *************** function _TMR4_Initialize *****************
 Defined at:
		line 63 in file "mcc_generated_files/tmr4.c"
 Parameters:    Size  Location     Type
		None
 Auto vars:     Size  Location     Type
		None
 Return value:  Size  Location     Type
                  1    wreg      void 
 Registers used:
		wreg, status,2, status,0, pclath, cstack
 Tracked objects:
		On entry : 
		On exit  : 
		Unchanged: 
 Data sizes:     COMMON   BANK0   BANK1   BANK2   BANK3   BANK4   BANK5   BANK6   BANK7   BANK8   BANK9  BANK10  BANK11  BANK12  BANK13  BANK14  BANK15  BANK16  BANK17  BANK18  BANK19  BANK20  BANK21  BANK22  BANK23  BANK24  BANK25
      Params:         0       0       0       0       0       0       0       0       0       0       0       0       0       0       0       0       0       0       0       0       0       0       0       0       0       0       0
      Locals:         0       0       0       0       0       0       0       0       0       0       0       0       0       0       0       0       0       0       0       0       0       0       0       0       0       0       0
      Temps:          0       0       0       0       0       0       0       0       0       0       0       0       0       0       0       0       0       0       0       0       0       0       0       0       0       0       0
      Totals:         0       0       0       0       0       0       0       0       0       0       0       0       0       0       0       0       0       0       0       0       0       0       0       0       0       0       0
Total ram usage:        0 bytes
 Hardware stack levels used:    1
 Hardware stack levels required when called:    5
 This function calls:
		_TMR4_StartTimer
 This function is called by:
		_SYSTEM_Initialize
		_nullifyBadge_platformInit
 This function uses a non-reentrant model


 *************** function _TMR4_StartTimer *****************
 Defined at:
		line 83 in file "mcc_generated_files/tmr4.c"
 Parameters:    Size  Location     Type
		None
 Auto vars:     Size  Location     Type
		None
 Return value:  Size  Location     Type
                  1    wreg      void 
 Registers used:
		None
 Tracked objects:
		On entry : 
		On exit  : 
		Unchanged: 
 Data sizes:     COMMON   BANK0   BANK1   BANK2   BANK3   BANK4   BANK5   BANK6   BANK7   BANK8   BANK9  BANK10  BANK11  BANK12  BANK13  BANK14  BANK15  BANK16  BANK17  BANK18  BANK19  BANK20  BANK21  BANK22  BANK23  BANK24  BANK25
      Params:         0       0       0       0       0       0       0       0       0       0       0       0       0       0       0       0       0       0       0       0       0       0       0       0       0       0       0
      Locals:         0       0       0       0       0       0       0       0       0       0       0       0       0       0       0       0       0       0       0       0       0       0       0       0       0       0       0
      Temps:          0       0       0       0       0       0       0       0       0       0       0       0       0       0       0       0       0       0       0       0       0       0       0       0       0       0       0
      Totals:         0       0       0       0       0       0       0       0       0       0       0       0       0       0       0       0       0       0       0       0       0       0       0       0       0       0       0
Total ram usage:        0 bytes
 Hardware stack levels used:    1
 Hardware stack levels required when called:    4
 This function calls:
		Nothing
 This function is called by:
		_TMR4_Initialize
 This function uses a non-reentrant model


 *************** function _TMR2_Initialize *****************
 Defined at:
		line 63 in file "mcc_generated_files/tmr2.c"
 Parameters:    Size  Location     Type
		None
 Auto vars:     Size  Location     Type
		None
 Return value:  Size  Location     Type
                  1    wreg      void 
 Registers used:
		wreg, status,2, status,0, pclath, cstack
 Tracked objects:
		On entry : 
		On exit  : 
		Unchanged: 
 Data sizes:     COMMON   BANK0   BANK1   BANK2   BANK3   BANK4   BANK5   BANK6   BANK7   BANK8   BANK9  BANK10  BANK11  BANK12  BANK13  BANK14  BANK15  BANK16  BANK17  BANK18  BANK19  BANK20  BANK21  BANK22  BANK23  BANK24  BANK25
      Params:         0       0       0       0       0       0       0       0       0       0       0       0       0       0       0       0       0       0       0       0       0       0       0       0       0       0       0
      Locals:         0       0       0       0       0       0       0       0       0       0       0       0       0       0       0       0       0       0       0       0       0       0       0       0       0       0       0
      Temps:          0       0       0       0       0       0       0       0       0       0       0       0       0       0       0       0       0       0       0       0       0       0       0       0       0       0       0
      Totals:         0       0       0       0       0       0       0       0       0       0       0       0       0       0       0       0       0       0       0       0       0       0       0       0       0       0       0
Total ram usage:        0 bytes
 Hardware stack levels used:    1
 Hardware stack levels required when called:    5
 This function calls:
		_TMR2_StartTimer
 This function is called by:
		_SYSTEM_Initialize
		_nullifyBadge_platformInit
 This function uses a non-reentrant model


 *************** function _TMR2_StartTimer *****************
 Defined at:
		line 83 in file "mcc_generated_files/tmr2.c"
 Parameters:    Size  Location     Type
		None
 Auto vars:     Size  Location     Type
		None
 Return value:  Size  Location     Type
                  1    wreg      void 
 Registers used:
		None
 Tracked objects:
		On entry : 
		On exit  : 
		Unchanged: 
 Data sizes:     COMMON   BANK0   BANK1   BANK2   BANK3   BANK4   BANK5   BANK6   BANK7   BANK8   BANK9  BANK10  BANK11  BANK12  BANK13  BANK14  BANK15  BANK16  BANK17  BANK18  BANK19  BANK20  BANK21  BANK22  BANK23  BANK24  BANK25
      Params:         0       0       0       0       0       0       0       0       0       0       0       0       0       0       0       0       0       0       0       0       0       0       0       0       0       0       0
      Locals:         0       0       0       0       0       0       0       0       0       0       0       0       0       0       0       0       0       0       0       0       0       0       0       0       0       0       0
      Temps:          0       0       0       0       0       0       0       0       0       0       0       0       0       0       0       0       0       0       0       0       0       0       0       0       0       0       0
      Totals:         0       0       0       0       0       0       0       0       0       0       0       0       0       0       0       0       0       0       0       0       0       0       0       0       0       0       0
Total ram usage:        0 bytes
 Hardware stack levels used:    1
 Hardware stack levels required when called:    4
 This function calls:
		Nothing
 This function is called by:
		_TMR2_Initialize
 This function uses a non-reentrant model


 *************** function _TMR0_Initialize *****************
 Defined at:
		line 65 in file "mcc_generated_files/tmr0.c"
 Parameters:    Size  Location     Type
		None
 Auto vars:     Size  Location     Type
		None
 Return value:  Size  Location     Type
                  1    wreg      void 
 Registers used:
		wreg, status,2, status,0, pclath, cstack
 Tracked objects:
		On entry : 
		On exit  : 
		Unchanged: 
 Data sizes:     COMMON   BANK0   BANK1   BANK2   BANK3   BANK4   BANK5   BANK6   BANK7   BANK8   BANK9  BANK10  BANK11  BANK12  BANK13  BANK14  BANK15  BANK16  BANK17  BANK18  BANK19  BANK20  BANK21  BANK22  BANK23  BANK24  BANK25
      Params:         0       0       0       0       0       0       0       0       0       0       0       0       0       0       0       0       0       0       0       0       0       0       0       0       0       0       0
      Locals:         0       0       0       0       0       0       0       0       0       0       0       0       0       0       0       0       0       0       0       0       0       0       0       0       0       0       0
      Temps:          0       0       0       0       0       0       0       0       0       0       0       0       0       0       0       0       0       0       0       0       0       0       0       0       0       0       0
      Totals:         0       0       0       0       0       0       0       0       0       0       0       0       0       0       0       0       0       0       0       0       0       0       0       0       0       0       0
Total ram usage:        0 bytes
 Hardware stack levels used:    1
 Hardware stack levels required when called:    5
 This function calls:
		_TMR0_SetInterruptHandler
		_TMR0_StartTimer
 This function is called by:
		_SYSTEM_Initialize
		_nullifyBadge_platformInit
 This function uses a non-reentrant model


 *************** function _TMR0_StartTimer *****************
 Defined at:
		line 97 in file "mcc_generated_files/tmr0.c"
 Parameters:    Size  Location     Type
		None
 Auto vars:     Size  Location     Type
		None
 Return value:  Size  Location     Type
                  1    wreg      void 
 Registers used:
		None
 Tracked objects:
		On entry : 
		On exit  : 
		Unchanged: 
 Data sizes:     COMMON   BANK0   BANK1   BANK2   BANK3   BANK4   BANK5   BANK6   BANK7   BANK8   BANK9  BANK10  BANK11  BANK12  BANK13  BANK14  BANK15  BANK16  BANK17  BANK18  BANK19  BANK20  BANK21  BANK22  BANK23  BANK24  BANK25
      Params:         0       0       0       0       0       0       0       0       0       0       0       0       0       0       0       0       0       0       0       0       0       0       0       0       0       0       0
      Locals:         0       0       0       0       0       0       0       0       0       0       0       0       0       0       0       0       0       0       0       0       0       0       0       0       0       0       0
      Temps:          0       0       0       0       0       0       0       0       0       0       0       0       0       0       0       0       0       0       0       0       0       0       0       0       0       0       0
      Totals:         0       0       0       0       0       0       0       0       0       0       0       0       0       0       0       0       0       0       0       0       0       0       0       0       0       0       0
Total ram usage:        0 bytes
 Hardware stack levels used:    1
 Hardware stack levels required when called:    4
 This function calls:
		Nothing
 This function is called by:
		_TMR0_Initialize
 This function uses a non-reentrant model


 *************** function _TMR0_SetInterruptHandler *****************
 Defined at:
		line 161 in file "mcc_generated_files/tmr0.c"
 Parameters:    Size  Location     Type
  InterruptHan    2    1[COMMON] PTR void 
		 -> TMR0_DefaultInterruptHandler(1), 
 Auto vars:     Size  Location     Type
		None
 Return value:  Size  Location     Type
                  1    wreg      void 
 Registers used:
		wreg
 Tracked objects:
		On entry : 
		On exit  : 
		Unchanged: 
 Data sizes:     COMMON   BANK0   BANK1   BANK2   BANK3   BANK4   BANK5   BANK6   BANK7   BANK8   BANK9  BANK10  BANK11  BANK12  BANK13  BANK14  BANK15  BANK16  BANK17  BANK18  BANK19  BANK20  BANK21  BANK22  BANK23  BANK24  BANK25
      Params:         2       0       0       0       0       0       0       0       0       0       0       0       0       0       0       0       0       0       0       0       0       0       0       0       0       0       0
      Locals:         0       0       0       0       0       0       0       0       0       0       0       0       0       0       0       0       0       0       0       0       0       0       0       0       0       0       0
      Temps:          0       0       0       0       0       0       0       0       0       0       0       0       0       0       0       0       0       0       0       0       0       0       0       0       0       0       0
      Totals:         2       0       0       0       0       0       0       0       0       0       0       0       0       0       0       0       0       0       0       0       0       0       0       0       0       0       0
Total ram usage:        2 bytes
 Hardware stack levels used:    1
 Hardware stack levels required when called:    4
 This function calls:
		Nothing
 This function is called by:
		_TMR0_Initialize
 This function uses a non-reentrant model


 *************** function _SPI1_Initialize *****************
 Defined at:
		line 63 in file "mcc_generated_files/spi1.c"
 Parameters:    Size  Location     Type
		None
 Auto vars:     Size  Location     Type
		None
 Return value:  Size  Location     Type
                  1    wreg      void 
 Registers used:
		wreg
 Tracked objects:
		On entry : 
		On exit  : 
		Unchanged: 
 Data sizes:     COMMON   BANK0   BANK1   BANK2   BANK3   BANK4   BANK5   BANK6   BANK7   BANK8   BANK9  BANK10  BANK11  BANK12  BANK13  BANK14  BANK15  BANK16  BANK17  BANK18  BANK19  BANK20  BANK21  BANK22  BANK23  BANK24  BANK25
      Params:         0       0       0       0       0       0       0       0       0       0       0       0       0       0       0       0       0       0       0       0       0       0       0       0       0       0       0
      Locals:         0       0       0       0       0       0       0       0       0       0       0       0       0       0       0       0       0       0       0       0       0       0       0       0       0       0       0
      Temps:          0       0       0       0       0       0       0       0       0       0       0       0       0       0       0       0       0       0       0       0       0       0       0       0       0       0       0
      Totals:         0       0       0       0       0       0       0       0       0       0       0       0       0       0       0       0       0       0       0       0       0       0       0       0       0       0       0
Total ram usage:        0 bytes
 Hardware stack levels used:    1
 Hardware stack levels required when called:    4
 This function calls:
		Nothing
 This function is called by:
		_SYSTEM_Initialize
		_nullifyBadge_platformInit
 This function uses a non-reentrant model


 *************** function _PWM6_Initialize *****************
 Defined at:
		line 57 in file "mcc_generated_files/pwm6.c"
 Parameters:    Size  Location     Type
		None
 Auto vars:     Size  Location     Type
		None
 Return value:  Size  Location     Type
                  1    wreg      void 
 Registers used:
		wreg, status,2, status,0
 Tracked objects:
		On entry : 
		On exit  : 
		Unchanged: 
 Data sizes:     COMMON   BANK0   BANK1   BANK2   BANK3   BANK4   BANK5   BANK6   BANK7   BANK8   BANK9  BANK10  BANK11  BANK12  BANK13  BANK14  BANK15  BANK16  BANK17  BANK18  BANK19  BANK20  BANK21  BANK22  BANK23  BANK24  BANK25
      Params:         0       0       0       0       0       0       0       0       0       0       0       0       0       0       0       0       0       0       0       0       0       0       0       0       0       0       0
      Locals:         0       0       0       0       0       0       0       0       0       0       0       0       0       0       0       0       0       0       0       0       0       0       0       0       0       0       0
      Temps:          0       0       0       0       0       0       0       0       0       0       0       0       0       0       0       0       0       0       0       0       0       0       0       0       0       0       0
      Totals:         0       0       0       0       0       0       0       0       0       0       0       0       0       0       0       0       0       0       0       0       0       0       0       0       0       0       0
Total ram usage:        0 bytes
 Hardware stack levels used:    1
 Hardware stack levels required when called:    4
 This function calls:
		Nothing
 This function is called by:
		_SYSTEM_Initialize
		_nullifyBadge_platformInit
 This function uses a non-reentrant model


 *************** function _PWM5_Initialize *****************
 Defined at:
		line 57 in file "mcc_generated_files/pwm5.c"
 Parameters:    Size  Location     Type
		None
 Auto vars:     Size  Location     Type
		None
 Return value:  Size  Location     Type
                  1    wreg      void 
 Registers used:
		wreg, status,2, status,0
 Tracked objects:
		On entry : 
		On exit  : 
		Unchanged: 
 Data sizes:     COMMON   BANK0   BANK1   BANK2   BANK3   BANK4   BANK5   BANK6   BANK7   BANK8   BANK9  BANK10  BANK11  BANK12  BANK13  BANK14  BANK15  BANK16  BANK17  BANK18  BANK19  BANK20  BANK21  BANK22  BANK23  BANK24  BANK25
      Params:         0       0       0       0       0       0       0       0       0       0       0       0       0       0       0       0       0       0       0       0       0       0       0       0       0       0       0
      Locals:         0       0       0       0       0       0       0       0       0       0       0       0       0       0       0       0       0       0       0       0       0       0       0       0       0       0       0
      Temps:          0       0       0       0       0       0       0       0       0       0       0       0       0       0       0       0       0       0       0       0       0       0       0       0       0       0       0
      Totals:         0       0       0       0       0       0       0       0       0       0       0       0       0       0       0       0       0       0       0       0       0       0       0       0       0       0       0
Total ram usage:        0 bytes
 Hardware stack levels used:    1
 Hardware stack levels required when called:    4
 This function calls:
		Nothing
 This function is called by:
		_SYSTEM_Initialize
		_nullifyBadge_platformInit
 This function uses a non-reentrant model


 *************** function _PWM2_Initialize *****************
 Defined at:
		line 63 in file "mcc_generated_files/pwm2.c"
 Parameters:    Size  Location     Type
		None
 Auto vars:     Size  Location     Type
		None
 Return value:  Size  Location     Type
                  1    wreg      void 
 Registers used:
		wreg, status,2, status,0
 Tracked objects:
		On entry : 
		On exit  : 
		Unchanged: 
 Data sizes:     COMMON   BANK0   BANK1   BANK2   BANK3   BANK4   BANK5   BANK6   BANK7   BANK8   BANK9  BANK10  BANK11  BANK12  BANK13  BANK14  BANK15  BANK16  BANK17  BANK18  BANK19  BANK20  BANK21  BANK22  BANK23  BANK24  BANK25
      Params:         0       0       0       0       0       0       0       0       0       0       0       0       0       0       0       0       0       0       0       0       0       0       0       0       0       0       0
      Locals:         0       0       0       0       0       0       0       0       0       0       0       0       0       0       0       0       0       0       0       0       0       0       0       0       0       0       0
      Temps:          0       0       0       0       0       0       0       0       0       0       0       0       0       0       0       0       0       0       0       0       0       0       0       0       0       0       0
      Totals:         0       0       0       0       0       0       0       0       0       0       0       0       0       0       0       0       0       0       0       0       0       0       0       0       0       0       0
Total ram usage:        0 bytes
 Hardware stack levels used:    1
 Hardware stack levels required when called:    4
 This function calls:
		Nothing
 This function is called by:
		_SYSTEM_Initialize
		_nullifyBadge_platformInit
 This function uses a non-reentrant model


 *************** function _PWM1_Initialize *****************
 Defined at:
		line 63 in file "mcc_generated_files/pwm1.c"
 Parameters:    Size  Location     Type
		None
 Auto vars:     Size  Location     Type
		None
 Return value:  Size  Location     Type
                  1    wreg      void 
 Registers used:
		wreg, status,2, status,0
 Tracked objects:
		On entry : 
		On exit  : 
		Unchanged: 
 Data sizes:     COMMON   BANK0   BANK1   BANK2   BANK3   BANK4   BANK5   BANK6   BANK7   BANK8   BANK9  BANK10  BANK11  BANK12  BANK13  BANK14  BANK15  BANK16  BANK17  BANK18  BANK19  BANK20  BANK21  BANK22  BANK23  BANK24  BANK25
      Params:         0       0       0       0       0       0       0       0       0       0       0       0       0       0       0       0       0       0       0       0       0       0       0       0       0       0       0
      Locals:         0       0       0       0       0       0       0       0       0       0       0       0       0       0       0       0       0       0       0       0       0       0       0       0       0       0       0
      Temps:          0       0       0       0       0       0       0       0       0       0       0       0       0       0       0       0       0       0       0       0       0       0       0       0       0       0       0
      Totals:         0       0       0       0       0       0       0       0       0       0       0       0       0       0       0       0       0       0       0       0       0       0       0       0       0       0       0
Total ram usage:        0 bytes
 Hardware stack levels used:    1
 Hardware stack levels required when called:    4
 This function calls:
		Nothing
 This function is called by:
		_SYSTEM_Initialize
		_nullifyBadge_platformInit
 This function uses a non-reentrant model


 *************** function _PIN_MANAGER_Initialize *****************
 Defined at:
		line 51 in file "mcc_generated_files/pin_manager.c"
 Parameters:    Size  Location     Type
		None
 Auto vars:     Size  Location     Type
  state           1    1[COMMON] unsigned char 
 Return value:  Size  Location     Type
                  1    wreg      void 
 Registers used:
		wreg, status,2, status,0
 Tracked objects:
		On entry : 
		On exit  : 
		Unchanged: 
 Data sizes:     COMMON   BANK0   BANK1   BANK2   BANK3   BANK4   BANK5   BANK6   BANK7   BANK8   BANK9  BANK10  BANK11  BANK12  BANK13  BANK14  BANK15  BANK16  BANK17  BANK18  BANK19  BANK20  BANK21  BANK22  BANK23  BANK24  BANK25
      Params:         0       0       0       0       0       0       0       0       0       0       0       0       0       0       0       0       0       0       0       0       0       0       0       0       0       0       0
      Locals:         1       0       0       0       0       0       0       0       0       0       0       0       0       0       0       0       0       0       0       0       0       0       0       0       0       0       0
      Temps:          0       0       0       0       0       0       0       0       0       0       0       0       0       0       0       0       0       0       0       0       0       0       0       0       0       0       0
      Totals:         1       0       0       0       0       0       0       0       0       0       0       0       0       0       0       0       0       0       0       0       0       0       0       0       0       0       0
Total ram usage:        1 bytes
 Hardware stack levels used:    1
 Hardware stack levels required when called:    4
 This function calls:
		Nothing
 This function is called by:
		_SYSTEM_Initialize
		_nullifyBadge_platformInit
 This function uses a non-reentrant model


 *************** function _OSCILLATOR_Initialize *****************
 Defined at:
		line 92 in file "mcc_generated_files/mcc.c"
 Parameters:    Size  Location     Type
		None
 Auto vars:     Size  Location     Type
		None
 Return value:  Size  Location     Type
                  1    wreg      void 
 Registers used:
		wreg, status,2
 Tracked objects:
		On entry : 
		On exit  : 
		Unchanged: 
 Data sizes:     COMMON   BANK0   BANK1   BANK2   BANK3   BANK4   BANK5   BANK6   BANK7   BANK8   BANK9  BANK10  BANK11  BANK12  BANK13  BANK14  BANK15  BANK16  BANK17  BANK18  BANK19  BANK20  BANK21  BANK22  BANK23  BANK24  BANK25
      Params:         0       0       0       0       0       0       0       0       0       0       0       0       0       0       0       0       0       0       0       0       0       0       0       0       0       0       0
      Locals:         0       0       0       0       0       0       0       0       0       0       0       0       0       0       0       0       0       0       0       0       0       0       0       0       0       0       0
      Temps:          0       0       0       0       0       0       0       0       0       0       0       0       0       0       0       0       0       0       0       0       0       0       0       0       0       0       0
      Totals:         0       0       0       0       0       0       0       0       0       0       0       0       0       0       0       0       0       0       0       0       0       0       0       0       0       0       0
Total ram usage:        0 bytes
 Hardware stack levels used:    1
 Hardware stack levels required when called:    4
 This function calls:
		Nothing
 This function is called by:
		_SYSTEM_Initialize
		_nullifyBadge_platformInit
 This function uses a non-reentrant model


 *************** function _PWM6_LoadDutyValue *****************
 Defined at:
		line 74 in file "mcc_generated_files/pwm6.c"
 Parameters:    Size  Location     Type
  dutyValue       2    1[COMMON] unsigned int 
 Auto vars:     Size  Location     Type
		None
 Return value:  Size  Location     Type
                  1    wreg      void 
 Registers used:
		wreg, status,2, status,0
 Tracked objects:
		On entry : 
		On exit  : 
		Unchanged: 
 Data sizes:     COMMON   BANK0   BANK1   BANK2   BANK3   BANK4   BANK5   BANK6   BANK7   BANK8   BANK9  BANK10  BANK11  BANK12  BANK13  BANK14  BANK15  BANK16  BANK17  BANK18  BANK19  BANK20  BANK21  BANK22  BANK23  BANK24  BANK25
      Params:         2       0       0       0       0       0       0       0       0       0       0       0       0       0       0       0       0       0       0       0       0       0       0       0       0       0       0
      Locals:         0       0       0       0       0       0       0       0       0       0       0       0       0       0       0       0       0       0       0       0       0       0       0       0       0       0       0
      Temps:          2       0       0       0       0       0       0       0       0       0       0       0       0       0       0       0       0       0       0       0       0       0       0       0       0       0       0
      Totals:         4       0       0       0       0       0       0       0       0       0       0       0       0       0       0       0       0       0       0       0       0       0       0       0       0       0       0
Total ram usage:        4 bytes
 Hardware stack levels used:    1
 Hardware stack levels required when called:    4
 This function calls:
		Nothing
 This function is called by:
		_nullifyBadge_platformInit
		_nullifyBadge_userLedsSetBrightness
 This function uses a non-reentrant model


 *************** function _PWM5_LoadDutyValue *****************
 Defined at:
		line 74 in file "mcc_generated_files/pwm5.c"
 Parameters:    Size  Location     Type
  dutyValue       2    1[COMMON] unsigned int 
 Auto vars:     Size  Location     Type
		None
 Return value:  Size  Location     Type
                  1    wreg      void 
 Registers used:
		wreg, status,2, status,0
 Tracked objects:
		On entry : 
		On exit  : 
		Unchanged: 
 Data sizes:     COMMON   BANK0   BANK1   BANK2   BANK3   BANK4   BANK5   BANK6   BANK7   BANK8   BANK9  BANK10  BANK11  BANK12  BANK13  BANK14  BANK15  BANK16  BANK17  BANK18  BANK19  BANK20  BANK21  BANK22  BANK23  BANK24  BANK25
      Params:         2       0       0       0       0       0       0       0       0       0       0       0       0       0       0       0       0       0       0       0       0       0       0       0       0       0       0
      Locals:         0       0       0       0       0       0       0       0       0       0       0       0       0       0       0       0       0       0       0       0       0       0       0       0       0       0       0
      Temps:          2       0       0       0       0       0       0       0       0       0       0       0       0       0       0       0       0       0       0       0       0       0       0       0       0       0       0
      Totals:         4       0       0       0       0       0       0       0       0       0       0       0       0       0       0       0       0       0       0       0       0       0       0       0       0       0       0
Total ram usage:        4 bytes
 Hardware stack levels used:    1
 Hardware stack levels required when called:    4
 This function calls:
		Nothing
 This function is called by:
		_nullifyBadge_platformInit
		_fadeDisplay_Init
		_nullifyBadge_segDisplaySetBrightness
 This function uses a non-reentrant model


 *************** function _PWM2_LoadDutyValue *****************
 Defined at:
		line 80 in file "mcc_generated_files/pwm2.c"
 Parameters:    Size  Location     Type
  dutyValue       2    1[COMMON] unsigned int 
 Auto vars:     Size  Location     Type
		None
 Return value:  Size  Location     Type
                  1    wreg      void 
 Registers used:
		wreg, status,2
 Tracked objects:
		On entry : 
		On exit  : 
		Unchanged: 
 Data sizes:     COMMON   BANK0   BANK1   BANK2   BANK3   BANK4   BANK5   BANK6   BANK7   BANK8   BANK9  BANK10  BANK11  BANK12  BANK13  BANK14  BANK15  BANK16  BANK17  BANK18  BANK19  BANK20  BANK21  BANK22  BANK23  BANK24  BANK25
      Params:         2       0       0       0       0       0       0       0       0       0       0       0       0       0       0       0       0       0       0       0       0       0       0       0       0       0       0
      Locals:         0       0       0       0       0       0       0       0       0       0       0       0       0       0       0       0       0       0       0       0       0       0       0       0       0       0       0
      Temps:          0       0       0       0       0       0       0       0       0       0       0       0       0       0       0       0       0       0       0       0       0       0       0       0       0       0       0
      Totals:         2       0       0       0       0       0       0       0       0       0       0       0       0       0       0       0       0       0       0       0       0       0       0       0       0       0       0
Total ram usage:        2 bytes
 Hardware stack levels used:    1
 Hardware stack levels required when called:    4
 This function calls:
		Nothing
 This function is called by:
		_nullifyBadge_platformInit
 This function uses a non-reentrant model


 *************** function _PWM1_LoadDutyValue *****************
 Defined at:
		line 80 in file "mcc_generated_files/pwm1.c"
 Parameters:    Size  Location     Type
  dutyValue       2    1[COMMON] unsigned int 
 Auto vars:     Size  Location     Type
		None
 Return value:  Size  Location     Type
                  1    wreg      void 
 Registers used:
		wreg, status,2
 Tracked objects:
		On entry : 
		On exit  : 
		Unchanged: 
 Data sizes:     COMMON   BANK0   BANK1   BANK2   BANK3   BANK4   BANK5   BANK6   BANK7   BANK8   BANK9  BANK10  BANK11  BANK12  BANK13  BANK14  BANK15  BANK16  BANK17  BANK18  BANK19  BANK20  BANK21  BANK22  BANK23  BANK24  BANK25
      Params:         2       0       0       0       0       0       0       0       0       0       0       0       0       0       0       0       0       0       0       0       0       0       0       0       0       0       0
      Locals:         0       0       0       0       0       0       0       0       0       0       0       0       0       0       0       0       0       0       0       0       0       0       0       0       0       0       0
      Temps:          0       0       0       0       0       0       0       0       0       0       0       0       0       0       0       0       0       0       0       0       0       0       0       0       0       0       0
      Totals:         2       0       0       0       0       0       0       0       0       0       0       0       0       0       0       0       0       0       0       0       0       0       0       0       0       0       0
Total ram usage:        2 bytes
 Hardware stack levels used:    1
 Hardware stack levels required when called:    4
 This function calls:
		Nothing
 This function is called by:
		_nullifyBadge_platformInit
 This function uses a non-reentrant model


 *************** function _INTERRUPT_InterruptManager *****************
 Defined at:
		line 51 in file "mcc_generated_files/interrupt_manager.c"
 Parameters:    Size  Location     Type
		None
 Auto vars:     Size  Location     Type
		None
 Return value:  Size  Location     Type
                  1    wreg      void 
 Registers used:
		wreg, status,2, status,0, pclath, cstack
 Tracked objects:
		On entry : 
		On exit  : 
		Unchanged: 
 Data sizes:     COMMON   BANK0   BANK1   BANK2   BANK3   BANK4   BANK5   BANK6   BANK7   BANK8   BANK9  BANK10  BANK11  BANK12  BANK13  BANK14  BANK15  BANK16  BANK17  BANK18  BANK19  BANK20  BANK21  BANK22  BANK23  BANK24  BANK25
      Params:         0       0       0       0       0       0       0       0       0       0       0       0       0       0       0       0       0       0       0       0       0       0       0       0       0       0       0
      Locals:         0       0       0       0       0       0       0       0       0       0       0       0       0       0       0       0       0       0       0       0       0       0       0       0       0       0       0
      Temps:          1       0       0       0       0       0       0       0       0       0       0       0       0       0       0       0       0       0       0       0       0       0       0       0       0       0       0
      Totals:         1       0       0       0       0       0       0       0       0       0       0       0       0       0       0       0       0       0       0       0       0       0       0       0       0       0       0
Total ram usage:        1 bytes
 Hardware stack levels used:    1
 Hardware stack levels required when called:    3
 This function calls:
		_TMR0_ISR
 This function is called by:
		Interrupt level 1
 This function uses a non-reentrant model


 *************** function _TMR0_ISR *****************
 Defined at:
		line 136 in file "mcc_generated_files/tmr0.c"
 Parameters:    Size  Location     Type
		None
 Auto vars:     Size  Location     Type
		None
 Return value:  Size  Location     Type
                  1    wreg      void 
 Registers used:
		wreg, status,2, status,0, pclath, cstack
 Tracked objects:
		On entry : 
		On exit  : 
		Unchanged: 
 Data sizes:     COMMON   BANK0   BANK1   BANK2   BANK3   BANK4   BANK5   BANK6   BANK7   BANK8   BANK9  BANK10  BANK11  BANK12  BANK13  BANK14  BANK15  BANK16  BANK17  BANK18  BANK19  BANK20  BANK21  BANK22  BANK23  BANK24  BANK25
      Params:         0       0       0       0       0       0       0       0       0       0       0       0       0       0       0       0       0       0       0       0       0       0       0       0       0       0       0
      Locals:         0       0       0       0       0       0       0       0       0       0       0       0       0       0       0       0       0       0       0       0       0       0       0       0       0       0       0
      Temps:          0       0       0       0       0       0       0       0       0       0       0       0       0       0       0       0       0       0       0       0       0       0       0       0       0       0       0
      Totals:         0       0       0       0       0       0       0       0       0       0       0       0       0       0       0       0       0       0       0       0       0       0       0       0       0       0       0
Total ram usage:        0 bytes
 Hardware stack levels used:    1
 Hardware stack levels required when called:    2
 This function calls:
		_TMR0_CallBack
 This function is called by:
		_INTERRUPT_InterruptManager
 This function uses a non-reentrant model


 *************** function _TMR0_CallBack *****************
 Defined at:
		line 151 in file "mcc_generated_files/tmr0.c"
 Parameters:    Size  Location     Type
		None
 Auto vars:     Size  Location     Type
		None
 Return value:  Size  Location     Type
                  1    wreg      void 
 Registers used:
		wreg, status,2, status,0, pclath, cstack
 Tracked objects:
		On entry : 
		On exit  : 
		Unchanged: 
 Data sizes:     COMMON   BANK0   BANK1   BANK2   BANK3   BANK4   BANK5   BANK6   BANK7   BANK8   BANK9  BANK10  BANK11  BANK12  BANK13  BANK14  BANK15  BANK16  BANK17  BANK18  BANK19  BANK20  BANK21  BANK22  BANK23  BANK24  BANK25
      Params:         0       0       0       0       0       0       0       0       0       0       0       0       0       0       0       0       0       0       0       0       0       0       0       0       0       0       0
      Locals:         0       0       0       0       0       0       0       0       0       0       0       0       0       0       0       0       0       0       0       0       0       0       0       0       0       0       0
      Temps:          0       0       0       0       0       0       0       0       0       0       0       0       0       0       0       0       0       0       0       0       0       0       0       0       0       0       0
      Totals:         0       0       0       0       0       0       0       0       0       0       0       0       0       0       0       0       0       0       0       0       0       0       0       0       0       0       0
Total ram usage:        0 bytes
 Hardware stack levels used:    1
 Hardware stack levels required when called:    1
 This function calls:
		Absolute function
		_TMR0_DefaultInterruptHandler
 This function is called by:
		_TMR0_ISR
 This function uses a non-reentrant model


 *************** function _TMR0_DefaultInterruptHandler *****************
 Defined at:
		line 165 in file "mcc_generated_files/tmr0.c"
 Parameters:    Size  Location     Type
		None
 Auto vars:     Size  Location     Type
		None
 Return value:  Size  Location     Type
                  1    wreg      void 
 Registers used:
		None
 Tracked objects:
		On entry : 
		On exit  : 
		Unchanged: 
 Data sizes:     COMMON   BANK0   BANK1   BANK2   BANK3   BANK4   BANK5   BANK6   BANK7   BANK8   BANK9  BANK10  BANK11  BANK12  BANK13  BANK14  BANK15  BANK16  BANK17  BANK18  BANK19  BANK20  BANK21  BANK22  BANK23  BANK24  BANK25
      Params:         0       0       0       0       0       0       0       0       0       0       0       0       0       0       0       0       0       0       0       0       0       0       0       0       0       0       0
      Locals:         0       0       0       0       0       0       0       0       0       0       0       0       0       0       0       0       0       0       0       0       0       0       0       0       0       0       0
      Temps:          0       0       0       0       0       0       0       0       0       0       0       0       0       0       0       0       0       0       0       0       0       0       0       0       0       0       0
      Totals:         0       0       0       0       0       0       0       0       0       0       0       0       0       0       0       0       0       0       0       0       0       0       0       0       0       0       0
Total ram usage:        0 bytes
 Hardware stack levels used:    1
 This function calls:
		Nothing
 This function is called by:
		_TMR0_Initialize
		_TMR0_CallBack
 This function uses a non-reentrant model



MODULE INFORMATION

Module		Function		Class		Link	Load	Size
/Applications/microchip/xc8/v1.42/sources/common/isdigit.c
		_isdigit       		CODE           	348B	0000	15

/Applications/microchip/xc8/v1.42/sources/common/isdigit.c estimated size: 15

flashy_task.c
		_flashy_display_option		CODE           	1A00	0000	96
		_flashy_Main   		CODE           	0819	0000	2024
		_flashy_Init   		CODE           	0764	0000	151

flashy_task.c estimated size: 2271

mcc_generated_files/pwm6.c
		_PWM6_LoadDutyValue		CODE           	3595	0000	23
		_PWM6_Initialize		CODE           	345A	0000	13

mcc_generated_files/pwm6.c estimated size: 36

mcc_generated_files/tmr4.c
		_TMR4_Initialize		CODE           	3438	0000	12
		_TMR4_StartTimer		CODE           	33AD	0000	4

mcc_generated_files/tmr4.c estimated size: 16

nullifyBadge.c
		_nullifyBadge_segDisplayErase		CODE           	33D1	0000	7
		_nullifyBadge_segDisplayPutStr		CODE           	340D	0000	11
		_nullifyBadge_userLedsClr		CODE           	07FA	0000	7
		_nullifyBadge_irTxClr		CODE           	33B0	0000	4
		_nullifyBadge_buttonsGet		CODE           	2882	0000	50
		_nullifyBadge_segDisplayForceUpdate		CODE           	33CB	0000	7
		_nullifyBadge_irTxSet		CODE           	33B3	0000	4
		_nullifyBadge_segDisplayRegister		CODE           	33DF	0000	9
		_nullifyBadge_irGet		CODE           	33BA	0000	6
		_nullifyBadge_userLedsRegister		CODE           	34B6	0000	16
		_nullifyBadge_irTxRelease		CODE           	3443	0000	12
		_nullifyBadge_platformInit		CODE           	2E29	0000	86
		_nullifyBadge_irTxRegister		CODE           	34A7	0000	16
		_nullifyBadge_userLedsSet		CODE           	34E6	0000	18

nullifyBadge.c estimated size: 253

/Applications/microchip/xc8/v1.42/sources/common/Umul16.c
		___wmul        		CODE           	35F3	0000	28

/Applications/microchip/xc8/v1.42/sources/common/Umul16.c estimated size: 28

mcc_generated_files/tmr2.c
		_TMR2_Initialize		CODE           	3403	0000	11
		_TMR2_StartTimer		CODE           	33AA	0000	4

mcc_generated_files/tmr2.c estimated size: 15

mcc_generated_files/interrupt_manager.c
		_INTERRUPT_InterruptManager		CODE           	0004	0000	19

mcc_generated_files/interrupt_manager.c estimated size: 19

mcc_generated_files/pwm2.c
		_PWM2_Initialize		CODE           	342D	0000	12
		_PWM2_LoadDutyValue		CODE           	3569	0000	23

mcc_generated_files/pwm2.c estimated size: 35

mcc_generated_files/tmr0.c
		_TMR0_SetInterruptHandler		CODE           	33BF	0000	7
		_TMR0_DefaultInterruptHandler		CODE           	0800	0000	2
		_TMR0_CallBack 		CODE           	3417	0000	12
		_TMR0_StartTimer		CODE           	33A7	0000	4
		_TMR0_Read16bitTimer		CODE           	3645	0000	30
		_TMR0_ISR      		CODE           	347E	0000	14
		_TMR0_Initialize		CODE           	3662	0000	31

mcc_generated_files/tmr0.c estimated size: 100

mcc_generated_files/pin_manager.c
		_PIN_MANAGER_Initialize		CODE           	2DD4	0000	86

mcc_generated_files/pin_manager.c estimated size: 86

menu_task.c
		_menu_Init     		CODE           	2F3B	0000	99
		_menu_display_option		CODE           	2ED9	0000	99
		_menu_Main     		CODE           	1E09	0000	504
		_menu_run_option		CODE           	2C96	0000	75
		_menu_clear    		CODE           	2C07	0000	72

menu_task.c estimated size: 849

mcc_generated_files/spi1.c
		_SPI1_Initialize		CODE           	33D7	0000	9
		_SPI1_Exchange8bitBuffer		CODE           	2CE0	0000	79
		_SPI1_Exchange8bit		CODE           	33E7	0000	10

mcc_generated_files/spi1.c estimated size: 98

secret_task.c
		_secret_Main   		CODE           	2643	0000	446
		_secret_Init   		CODE           	2E7E	0000	92
		_secret_check  		CODE           	1028	0000	188
		_secret_clear  		CODE           	28B3	0000	51

secret_task.c estimated size: 777

/Applications/microchip/xc8/v1.42/sources/common/lwmod.c
		___lwmod       		CODE           	3772	0000	46

/Applications/microchip/xc8/v1.42/sources/common/lwmod.c estimated size: 46

nullifyBadge_displayL2.c
		_displayL2_EraseSegDisplay		CODE           	34C5	0000	17
		_displayL2_ForceUpdate		CODE           	33C5	0000	7
		_displayL2_PutStr		CODE           	3748	0000	43
		_displayL2_PutChar		CODE           	2D2E	0000	83
		_displayL2_Initialize		CODE           	3722	0000	39
		_displayL2_ClrUserLeds		CODE           	3499	0000	15
		_displayL2_SetUserLeds		CODE           	369E	0000	31

nullifyBadge_displayL2.c estimated size: 235

/Applications/microchip/xc8/v1.42/sources/common/Umul32.c
		___lmul        		CODE           	37CE	0000	51

/Applications/microchip/xc8/v1.42/sources/common/Umul32.c estimated size: 51

/Applications/microchip/xc8/v1.42/sources/common/almod.c
		___almod       		CODE           	20F1	0000	111

/Applications/microchip/xc8/v1.42/sources/common/almod.c estimated size: 111

locked_task.c
		_locked_Main   		CODE           	1C2C	0000	478
		_locked_Init   		CODE           	2F9D	0000	100
		_locked_clear  		CODE           	2AF6	0000	67
		_locked_lock_leds		CODE           	35D9	0000	27
		_locked_get_unlock_leds		CODE           	0801	0000	25
		_locked_get_lock_leds		CODE           	36FE	0000	37
		_locked_unlock_leds		CODE           	351A	0000	19

locked_task.c estimated size: 753

shared
		_dpowers       		STRCODE        	2800	0000	11
		_gamma_table_256x1k		STRCODE        	1800	0000	513
		__initialization		CODE           	0018	0000	202

shared estimated size: 726

mcc_generated_files/pwm5.c
		_PWM5_LoadDutyValue		CODE           	357F	0000	23
		_PWM5_Initialize		CODE           	344E	0000	13

mcc_generated_files/pwm5.c estimated size: 36

/Applications/microchip/xc8/v1.42/sources/common/rand.c
		_rand          		CODE           	2B38	0000	68

/Applications/microchip/xc8/v1.42/sources/common/rand.c estimated size: 68

/Applications/microchip/xc8/v1.42/sources/common/strlen.c
		_strlen        		CODE           	3680	0000	31

/Applications/microchip/xc8/v1.42/sources/common/strlen.c estimated size: 31

mcc_generated_files/mcc.c
		_WDT_Initialize		CODE           	33B6	0000	5
		_OSCILLATOR_Initialize		CODE           	33F9	0000	11
		_SYSTEM_Initialize		CODE           	36BC	0000	34

mcc_generated_files/mcc.c estimated size: 50

cooperative_scheduler.c
		_scheduler_TaskInit		CODE           	29C0	0000	58
		_scheduler_TaskAdd		CODE           	2249	0000	123
		_schedulerExecute		CODE           	22C3	0000	133
		_scheduler_Init		CODE           	360E	0000	28
		_scheduler_TaskRun		CODE           	36DD	0000	34

cooperative_scheduler.c estimated size: 376

/Applications/microchip/xc8/v1.42/sources/common/memset.c
		_memset        		CODE           	35C1	0000	25

/Applications/microchip/xc8/v1.42/sources/common/memset.c estimated size: 25

mcc_generated_files/pwm1.c
		_PWM1_Initialize		CODE           	3422	0000	12
		_PWM1_LoadDutyValue		CODE           	3553	0000	23

mcc_generated_files/pwm1.c estimated size: 35

/Applications/microchip/xc8/v1.42/sources/common/lwdiv.c
		___lwdiv       		CODE           	28E5	0000	53

/Applications/microchip/xc8/v1.42/sources/common/lwdiv.c estimated size: 53

matrix_task.c
		_matrix_display_option		CODE           	23E5	0000	164
		_matrix_secret_check		CODE           	2488	0000	188
		_matrix_Main   		CODE           	10E3	0000	1822
		_matrix_Init   		CODE           	2347	0000	159

matrix_task.c estimated size: 2333

/Applications/microchip/xc8/v1.42/sources/common/doprnt.c
		_sprintf       		CODE           	1A5F	0000	462

/Applications/microchip/xc8/v1.42/sources/common/doprnt.c estimated size: 462

main.c
		_marquee       		CODE           	21D2	0000	120
		_main          		CODE           	0661	0000	260
		_let_alternate 		CODE           	353F	0000	21
		_led_Parody    		CODE           	208C	0000	102
		_led_roundabout		CODE           	2AB5	0000	66
		_led_circle    		CODE           	33F0	0000	10
		_led_rand      		CODE           	2C4E	0000	73
		_marquee_speedy		CODE           	215F	0000	116
		_led_curtain   		CODE           	2A74	0000	66

main.c estimated size: 834

/Applications/microchip/xc8/v1.42/sources/common/Umul8.c
		___bmul        		CODE           	34F7	0000	18

/Applications/microchip/xc8/v1.42/sources/common/Umul8.c estimated size: 18

slot_task.c
		_slot_Init     		CODE           	2028	0000	101
		_slot_Finished_Animation		CODE           	1001	0000	40
		_slot_Running_Animation		CODE           	2B7B	0000	71
		_slot_Setup    		CODE           	2D80	0000	85
		_slot_Main     		CODE           	00E5	0000	1405

slot_task.c estimated size: 1702

nullifyBadge_displayL1.c
		_displayL1_SetUserLed		CODE           	3508	0000	19
		_displayL1_SetSegChar		CODE           	2A33	0000	66
		_displayL1_Update		CODE           	34D5	0000	18
		_displayL1_Initialize		CODE           	352C	0000	20
		_displayCharReverse		CODE           	379F	0000	48

nullifyBadge_displayL1.c estimated size: 171

